(dp0
S'augustina'
p1
c__builtin__
set
p2
((lp3
g1
aS'gussie'
p4
aS'guss'
p5
aS'augustus'
p6
aS'gus'
p7
aS'augie'
p8
aS'tina'
p9
aS'aggy'
p10
aS'ina'
p11
atp12
Rp13
sS'augustine'
p14
g2
((lp15
S'gussie'
p16
ag14
aS'guss'
p17
aS'augustus'
p18
aS'gus'
p19
aS'augie'
p20
aS'tina'
p21
aS'aggy'
p22
aS'ina'
p23
atp24
Rp25
sS'unice'
p26
g2
((lp27
S'eunice'
p28
aS'nicie'
p29
ag26
atp30
Rp31
sS'fredric'
p32
g2
((lp33
S'frederica'
p34
aS'frederick'
p35
aS'derick'
p36
aS'fred'
p37
aS'freddie'
p38
aS'fritz'
p39
ag32
aS'frish'
p40
aS'rick'
p41
atp42
Rp43
sS'arminta'
p44
g2
((lp45
S'minite'
p46
ag44
aS'minnie'
p47
atp48
Rp49
sS'woody'
p50
g2
((lp51
g50
aS'woodrow'
p52
atp53
Rp54
sS'gabriella'
p55
g2
((lp56
S'ella'
p57
aS'eleanor'
p58
aS'ellie'
p59
aS'luella'
p60
aS'helen'
p61
ag55
atp62
Rp63
sS'baldie'
p64
g2
((lp65
S'archie'
p66
aS'archibald'
p67
ag64
atp68
Rp69
sS'gabrielle'
p70
g2
((lp71
S'gabbie'
p72
aS'gabriel'
p73
aS'ella'
p74
ag70
atp75
Rp76
sS'sanford'
p77
g2
((lp78
g77
aS'sandy'
p79
atp80
Rp81
sS'caddie'
p82
g2
((lp83
S'lynn'
p84
aS'lena'
p85
aS'carrie'
p86
aS'carolyn'
p87
ag82
aS'carol'
p88
aS'caroline'
p89
aS'cassie'
p90
atp91
Rp92
sS'xandra'
p93
g2
((lp94
S'andi'
p95
aS'ec'
p96
aS'ala'
p97
ag93
aS'sandra'
p98
aS'lex'
p99
aS'alex'
p100
aS'alec'
p101
aS'alexis'
p102
aS'sandy'
p103
aS'alexander'
p104
atp105
Rp106
sS'edward'
p107
g2
((lp108
S'ed'
p109
aS'ned'
p110
ag107
aS'ted'
p111
atp112
Rp113
sS'ren'
p114
g2
((lp115
S'laurie'
p116
aS'lauren'
p117
ag114
atp118
Rp119
sS'artelepsa'
p120
g2
((lp121
S'epsey'
p122
ag120
atp123
Rp124
sS'delf'
p125
g2
((lp126
S'delphi'
p127
aS'delphine'
p128
aS'del'
p129
ag125
atp130
Rp131
sS'callie'
p132
g2
((lp133
g132
aS'california'
p134
atp135
Rp136
sS'dell'
p137
g2
((lp138
S'delilah'
p139
aS'lil'
p140
ag137
aS'adela'
p141
aS'lila'
p142
aS'adelaide'
p143
aS'della'
p144
atp145
Rp146
sS'wilfred'
p147
g2
((lp148
g147
aS'willie'
p149
aS'fred'
p150
atp151
Rp152
sS'senie'
p153
g2
((lp154
S'eseneth'
p155
ag153
atp156
Rp157
sS'jacob'
p158
g2
((lp159
g158
aS'jake'
p160
atp161
Rp162
sS'waldo'
p163
g2
((lp164
S'oswald'
p165
aS'ossy'
p166
ag163
atp167
Rp168
sS'herbert'
p169
g2
((lp170
S'bert'
p171
ag169
aS'herb'
p172
atp173
Rp174
sS'harriet'
p175
g2
((lp176
g175
aS'hatty'
p177
aS'hattie'
p178
aS'harry'
p179
atp180
Rp181
sS'rodie'
p182
g2
((lp183
g182
aS'rhoda'
p184
atp185
Rp186
sS'eileen'
p187
g2
((lp188
g187
aS'lena'
p189
aS'helena'
p190
aS'nell'
p191
aS'nellie'
p192
aS'eleanor'
p193
aS'elaine'
p194
aS'ellen'
p195
aS'helen'
p196
aS'aileen'
p197
atp198
Rp199
sS'chet'
p200
g2
((lp201
g200
aS'chester'
p202
aS'chesley'
p203
atp204
Rp205
sS'calpurnia'
p206
g2
((lp207
g206
aS'cally'
p208
atp209
Rp210
sS'philomena'
p211
g2
((lp212
S'menaalmena'
p213
ag211
atp214
Rp215
sS'sceeter'
p216
g2
((lp217
S'scott'
p218
ag216
aS'squat'
p219
aS'scottie'
p220
aS'scotty'
p221
atp222
Rp223
sS'melvin'
p224
g2
((lp225
S'mel'
p226
ag224
atp227
Rp228
sS'titia'
p229
g2
((lp230
S'tish'
p231
aS'lettie'
p232
ag229
aS'lettice'
p233
aS'letitia'
p234
atp235
Rp236
sS'ned'
p237
g2
((lp238
S'ed'
p239
ag237
aS'ted'
p240
ag107
aS'edmund'
p241
atp242
Rp243
sS'fidelia'
p244
g2
((lp245
S'delia'
p246
aS'delius'
p247
ag244
aS'cordelia'
p248
atp249
Rp250
sS'minty'
p251
g2
((lp252
S'armida'
p253
aS'middie'
p254
aS'araminta'
p255
ag251
aS'ruminta'
p256
atp257
Rp258
sS'theotric'
p259
g2
((lp260
S'theodore'
p261
aS'dorey'
p262
aS'ted'
p263
aS'theodora'
p264
ag259
atp265
Rp266
sS'lizzie'
p267
g2
((lp268
S'elizabeth'
p269
aS'ibby'
p270
ag267
aS'lizabeth'
p271
aS'liza'
p272
aS'elis'
p273
aS'bess'
p274
aS'bessie'
p275
aS'libby'
p276
aS'elsie'
p277
aS'dicey'
p278
aS'beth'
p279
aS'bette'
p280
aS'betsy'
p281
aS'betty'
p282
aS'bethia'
p283
aS'liz'
p284
aS'tess'
p285
atp286
Rp287
sS'net'
p288
g2
((lp289
S'antonia'
p290
ag288
aS'antoinette'
p291
aS'tonie'
p292
aS'nettie'
p293
atp294
Rp295
sS'antoinette'
p296
g2
((lp297
S'antonia'
p298
ag292
aS'anthony'
p299
aS'tony'
p300
ag288
ag293
ag296
atp301
Rp302
sS'meg'
p303
g2
((lp304
S'maggie'
p305
ag303
aS'greta'
p306
aS'megan'
p307
aS'maisie'
p308
aS'madge'
p309
aS'margaret'
p310
aS'marge'
p311
aS'margo'
p312
aS'metta'
p313
aS'midge'
p314
aS'peggie'
p315
aS'daisy'
p316
aS'margarita'
p317
aS'rita'
p318
atp319
Rp320
sS'philippa'
p321
g2
((lp322
g321
aS'pip'
p323
aS'philip'
p324
aS'phil'
p325
aS'phyllis'
p326
aS'filip'
p327
atp328
Rp329
sS'zach'
p330
g2
((lp331
S'zachary'
p332
aS'zacharias'
p333
aS'zachariah'
p334
ag330
aS'zeke'
p335
atp336
Rp337
sS'mel'
p338
g2
((lp339
S'melia'
p340
ag338
aS'amy'
p341
aS'lisa'
p342
aS'amelia'
p343
ag224
aS'emily'
p344
aS'lindy'
p345
aS'milly'
p346
aS'melinda'
p347
aS'missa'
p348
aS'missy'
p349
aS'melissa'
p350
aS'linda'
p351
aS'millie'
p352
aS'alyssa'
p353
atp354
Rp355
sS'eunice'
p356
g2
((lp357
g356
aS'nicie'
p358
ag26
atp359
Rp360
sS'drew'
p361
g2
((lp362
S'andrea'
p363
aS'andy'
p364
aS'andrew'
p365
ag361
aS'ansey'
p366
atp367
Rp368
sS'beck'
p369
g2
((lp370
S'beckie'
p371
aS'becky'
p372
aS'reba'
p373
ag369
aS'rebecca'
p374
aS'becca'
p375
atp376
Rp377
sS'dora'
p378
g2
((lp379
S'dorothea'
p380
aS'doda'
p381
aS'eudora'
p382
aS'isidore'
p383
aS'medora'
p384
aS'theodora'
p385
ag378
aS'pandora'
p386
aS'dorinda'
p387
aS'isadora'
p388
aS'issy'
p389
aS'doris'
p390
atp391
Rp392
sS'nanny'
p393
g2
((lp394
S'hattie'
p395
aS'hannah'
p396
aS'susannah'
p397
aS'nan'
p398
aS'anna'
p399
ag393
atp400
Rp401
sS'drea'
p402
g2
((lp403
g402
aS'andrea'
p404
aS'rea'
p405
aS'andrew'
p406
atp407
Rp408
sS'gerry'
p409
g2
((lp410
g409
aS'gerald'
p411
aS'geraldine'
p412
aS'jerry'
p413
atp414
Rp415
sS'mavery'
p416
g2
((lp417
g416
aS'mave'
p418
atp419
Rp420
sS'stevie'
p421
g2
((lp422
S'stephen'
p423
aS'steve'
p424
aS'step'
p425
ag421
aS'steven'
p426
atp427
Rp428
sS'gerri'
p429
g2
((lp430
g429
aS'dina'
p431
aS'gerald'
p432
aS'geraldine'
p433
aS'deannie'
p434
aS'gerrie'
p435
aS'jerry'
p436
atp437
Rp438
sS'cindy'
p439
g2
((lp440
S'cynthia'
p441
aS'lucinda'
p442
aS'cinderella'
p443
aS'lucy'
p444
ag439
aS'rilla'
p445
aS'arilla'
p446
aS'rella'
p447
aS'sina'
p448
atp449
Rp450
sg283
g2
((lp451
g269
ag270
ag267
ag271
ag272
ag273
ag274
ag275
ag276
ag277
ag278
ag279
ag280
ag281
ag282
ag283
ag284
ag285
atp452
Rp453
sS'dre'
p454
g2
((lp455
S'sondra'
p456
ag454
aS'sonnie'
p457
atp458
Rp459
sS'mossie'
p460
g2
((lp461
S'maury'
p462
aS'morris'
p463
ag460
aS'maurice'
p464
atp465
Rp466
sS'joshua'
p467
g2
((lp468
g467
aS'josh'
p469
atp470
Rp471
sS'marianna'
p472
g2
((lp473
g472
aS'marion'
p474
aS'marian'
p475
atp476
Rp477
sg457
g2
((lp478
g456
ag454
ag457
atp479
Rp480
sS'carmellia'
p481
g2
((lp482
S'mellia'
p483
ag481
atp484
Rp485
sS'julie'
p486
g2
((lp487
S'jill'
p488
aS'jule'
p489
aS'julius'
p490
aS'julian'
p491
ag486
aS'julia'
p492
aS'juliet'
p493
atp494
Rp495
sg492
g2
((lp496
g488
ag489
ag490
ag491
ag486
ag492
ag493
atp497
Rp498
sS'lonzo'
p499
g2
((lp500
S'alphonzo'
p501
aS'lonnie'
p502
aS'alonzo'
p503
aS'lon'
p504
aS'al'
p505
ag499
atp506
Rp507
sS'patience'
p508
g2
((lp509
g508
aS'pat'
p510
aS'patty'
p511
atp512
Rp513
sS'bri'
p514
g2
((lp515
S'sabby'
p516
aS'sabra'
p517
aS'sabrina'
p518
ag514
aS'brina'
p519
atp520
Rp521
sS'tempy'
p522
g2
((lp523
g522
aS'temperance'
p524
atp525
Rp526
sS'sarah'
p527
g2
((lp528
g527
aS'sadie'
p529
aS'sukie'
p530
aS'sara'
p531
aS'surry'
p532
aS'sal'
p533
aS'sallie'
p534
aS'cera'
p535
atp536
Rp537
sS'gustus'
p538
g2
((lp539
S'gus'
p540
aS'gustie'
p541
ag538
aS'augustus'
p542
aS'augusta'
p543
atp544
Rp545
sS'nora'
p546
g2
((lp547
S'leonore'
p548
aS'leonora'
p549
aS'elenor'
p550
aS'nell'
p551
aS'norah'
p552
aS'honey'
p553
aS'nellie'
p554
ag546
aS'elnora'
p555
aS'nonie'
p556
aS'honora'
p557
aS'honor'
p558
aS'norry'
p559
atp560
Rp561
sS'lorry'
p562
g2
((lp563
S'lars'
p564
aS'lawrence'
p565
aS'lon'
p566
aS'laura'
p567
aS'laurence'
p568
aS'larry'
p569
aS'lawrie'
p570
ag562
atp571
Rp572
sS'odell'
p573
g2
((lp574
g573
aS'odo'
p575
atp576
Rp577
sS'leffie'
p578
g2
((lp579
S'lafayette'
p580
ag578
aS'fate'
p581
aS'leffy'
p582
aS'fayette'
p583
aS'left'
p584
atp585
Rp586
sS'onie'
p587
g2
((lp588
g587
aS'arizona'
p589
aS'yeona'
p590
aS'ona'
p591
atp592
Rp593
sg381
g2
((lp594
S'dorothea'
p595
ag381
aS'dora'
p596
atp597
Rp598
sS'flora'
p599
g2
((lp600
S'florrie'
p601
aS'floss'
p602
ag599
aS'flo'
p603
aS'flossie'
p604
aS'florence'
p605
atp606
Rp607
sS'mc'
p608
g2
((lp609
S'mac'
p610
aS'mack'
p611
ag608
atp612
Rp613
sS'orilla'
p614
g2
((lp615
S'rilly'
p616
ag614
aS'aurelia'
p617
aS'ree'
p618
aS'aurilla'
p619
aS'ora'
p620
atp621
Rp622
sS'henry'
p623
g2
((lp624
S'hank'
p625
aS'henrietta'
p626
aS'harold'
p627
aS'hetty'
p628
aS'hal'
p629
aS'etta'
p630
ag623
aS'harry'
p631
aS'hence'
p632
aS'hen'
p633
aS'retta'
p634
aS'nettie'
p635
atp636
Rp637
sS'ernest'
p638
g2
((lp639
S'ernie'
p640
aS'erna'
p641
aS'teeny'
p642
aS'tina'
p643
ag638
aS'ernestine'
p644
atp645
Rp646
sS'gloria'
p647
g2
((lp648
g647
aS'glory'
p649
atp650
Rp651
sS'matilda'
p652
g2
((lp653
S'tillie'
p654
aS'tilda'
p655
aS'mat'
p656
ag652
aS'matty'
p657
aS'maud'
p658
atp659
Rp660
sS'barbery'
p661
g2
((lp662
g661
aS'barbara'
p663
atp664
Rp665
sS'theodosia'
p666
g2
((lp667
S'theo'
p668
ag666
aS'theodosius'
p669
aS'dosia'
p670
atp671
Rp672
sS'bennett'
p673
g2
((lp674
S'benedict'
p675
ag673
atp676
Rp677
sS'india'
p678
g2
((lp679
S'indie'
p680
ag678
aS'indy'
p681
atp682
Rp683
sg553
g2
((lp684
g553
aS'nora'
p685
ag559
ag557
ag552
atp686
Rp687
sS'esther'
p688
g2
((lp689
g688
aS'essie'
p690
aS'hester'
p691
atp692
Rp693
sS'frieda'
p694
g2
((lp695
S'alfreda'
p696
aS'alfy'
p697
ag694
aS'alfred'
p698
atp699
Rp700
sS'lottie'
p701
g2
((lp702
S'charlotte'
p703
aS'lotta'
p704
aS'car'
p705
aS'charles'
p706
aS'letty'
p707
aS'carlotta'
p708
ag701
atp709
Rp710
sS'iggy'
p711
g2
((lp712
S'ignatius'
p713
ag711
aS'nace'
p714
aS'naz'
p715
aS'ignatzio'
p716
atp717
Rp718
sS'lura'
p719
g2
((lp720
g719
aS'lurana'
p721
atp722
Rp723
sS'elbert'
p724
g2
((lp725
g724
aS'bert'
p726
aS'elbertson'
p727
aS'albert'
p728
atp729
Rp730
sS'winny'
p731
g2
((lp732
S'field'
p733
ag731
aS'winfield'
p734
aS'win'
p735
atp736
Rp737
sS'ronnie'
p738
g2
((lp739
S'veronica'
p740
aS'ron'
p741
aS'vonnie'
p742
aS'ronna'
p743
aS'ronald'
p744
aS'franky'
p745
ag738
atp746
Rp747
sS'lan'
p748
g2
((lp749
S'yulan'
p750
ag748
aS'yul'
p751
atp752
Rp753
sg372
g2
((lp754
g371
ag372
ag373
ag369
ag374
ag375
atp755
Rp756
sS'elizabeth'
p757
g2
((lp758
g270
ag279
ag271
ag272
ag273
ag274
aS'ib'
p759
aS'sabra'
p760
aS'tibbie'
p761
ag276
ag285
aS'belle'
p762
aS'eliza'
p763
aS'bella'
p764
ag281
ag284
ag282
ag275
ag757
aS'nib'
p765
ag267
aS'isabella'
p766
aS'cybilla'
p767
ag278
ag283
aS'isabelle'
p768
ag280
aS'alice'
p769
ag277
aS'sabe'
p770
aS'issy'
p771
aS'sibella'
p772
atp773
Rp774
sg604
g2
((lp775
g601
ag602
ag599
ag603
ag604
ag605
atp776
Rp777
sg590
g2
((lp778
S'onie'
p779
aS'ona'
p780
ag590
atp781
Rp782
sS'pokey'
p783
g2
((lp784
g783
aS'pocahontas'
p785
atp786
Rp787
sS'judie'
p788
g2
((lp789
g788
aS'judi'
p790
aS'juda'
p791
aS'judith'
p792
aS'judy'
p793
aS'jude'
p794
atp795
Rp796
sg767
g2
((lp797
S'elizabeth'
p798
ag765
ag766
ag767
ag760
ag761
ag759
ag768
ag762
ag764
ag772
ag771
ag770
atp799
Rp800
sS'pasoonie'
p801
g2
((lp802
S'teeny'
p803
aS'parthenia'
p804
aS'parsuny'
p805
ag801
aS'phenie'
p806
atp807
Rp808
sS'danny'
p809
g2
((lp810
S'sheridan'
p811
aS'daniel'
p812
aS'dank'
p813
aS'dan'
p814
ag809
atp815
Rp816
sS'wint'
p817
g2
((lp818
S'winton'
p819
ag817
atp820
Rp821
sS'janie'
p822
g2
((lp823
S'jessie'
p824
aS'janet'
p825
aS'jinsey'
p826
ag822
aS'joanna'
p827
aS'jane'
p828
aS'joan'
p829
aS'jenny'
p830
atp831
Rp832
sS'green'
p833
g2
((lp834
g833
aS'greenberry'
p835
aS'berry'
p836
atp837
Rp838
sS'avarilla'
p839
g2
((lp840
S'rilla'
p841
ag839
atp842
Rp843
sS'jack'
p844
g2
((lp845
S'jacqueline'
p846
aS'ian'
p847
aS'jackson'
p848
aS'jayhugh'
p849
aS'jackie'
p850
aS'hans'
p851
ag844
aS'ivan'
p852
aS'jean'
p853
aS'john'
p854
aS'jehu'
p855
aS'jock'
p856
atp857
Rp858
sg333
g2
((lp859
g332
ag333
ag334
ag330
ag335
atp860
Rp861
sS'zed'
p862
g2
((lp863
S'zedediah'
p864
ag862
atp865
Rp866
sS'fifi'
p867
g2
((lp868
g867
aS'phoebe'
p869
atp870
Rp871
sS'bella'
p872
g2
((lp873
g798
ag765
aS'ara'
p874
ag766
ag759
ag760
ag761
aS'arabella'
p875
ag767
ag768
aS'belle'
p876
ag872
ag770
ag771
ag772
atp877
Rp878
sg190
g2
((lp879
S'eileen'
p880
aS'lena'
p881
ag190
aS'nell'
p882
aS'nellie'
p883
aS'eleanor'
p884
aS'elaine'
p885
aS'ellen'
p886
aS'aileen'
p887
atp888
Rp889
sS'mabel'
p890
g2
((lp891
S'mitty'
p892
ag890
aS'mehitabel'
p893
aS'hetty'
p894
aS'amabel'
p895
atp896
Rp897
sg165
g2
((lp898
g165
ag166
ag163
atp899
Rp900
sS'tiffy'
p901
g2
((lp902
S'tiff'
p903
aS'tiffany'
p904
ag901
atp905
Rp906
sS'ebenezer'
p907
g2
((lp908
S'eber'
p909
ag907
aS'eben'
p910
aS'eb'
p911
atp912
Rp913
sg334
g2
((lp914
g332
ag333
ag334
ag330
ag335
atp915
Rp916
sS'clo'
p917
g2
((lp918
g917
aS'chloe'
p919
atp920
Rp921
sS'edith'
p922
g2
((lp923
S'aline'
p924
ag922
aS'adaline'
p925
aS'adela'
p926
aS'ada'
p927
aS'edie'
p928
aS'dicey'
p929
atp930
Rp931
sS'uriah'
p932
g2
((lp933
g932
aS'ury'
p934
atp935
Rp936
sS'fie'
p937
g2
((lp938
S'philander'
p939
ag937
atp940
Rp941
sS'abertina'
p942
g2
((lp943
S'bert'
p944
aS'bertie'
p945
aS'alberta'
p946
ag942
aS'albert'
p947
aS'albertine'
p948
aS'allie'
p949
atp950
Rp951
sS'violetta'
p952
g2
((lp953
g952
aS'lettie'
p954
atp955
Rp956
sS'eugene'
p957
g2
((lp958
S'euy'
p959
aS'jenny'
p960
aS'genie'
p961
aS'eugenia'
p962
aS'gene'
p963
ag957
atp964
Rp965
sg668
g2
((lp966
g668
ag666
ag669
ag670
atp967
Rp968
sS'rachel'
p969
g2
((lp970
g969
aS'raech'
p971
aS'rae'
p972
aS'ray'
p973
atp974
Rp975
sg619
g2
((lp976
g616
ag614
ag617
ag618
ag619
ag620
atp977
Rp978
sS'dickson'
p979
g2
((lp980
S'dick'
p981
ag979
atp982
Rp983
sg100
g2
((lp984
g95
ag96
ag97
ag93
ag98
ag99
ag100
ag101
ag102
ag103
ag104
atp985
Rp986
sS'lillian'
p987
g2
((lp988
S'lil'
p989
aS'lila'
p990
aS'odie'
p991
ag987
aS'lilly'
p992
aS'lolly'
p993
atp994
Rp995
sS'chuck'
p996
g2
((lp997
S'chick'
p998
aS'caroline'
p999
ag996
aS'charlotte'
p1000
atp1001
Rp1002
sg102
g2
((lp1003
g95
ag96
ag97
ag93
ag98
ag99
ag100
ag101
aS'lexi'
p1004
ag102
ag103
ag104
atp1005
Rp1006
sS'anastasia'
p1007
g2
((lp1008
g1007
aS'ana'
p1009
aS'stacy'
p1010
atp1011
Rp1012
sg101
g2
((lp1013
g95
ag96
ag97
ag93
ag98
ag99
ag100
ag101
ag102
ag103
ag104
atp1014
Rp1015
sS'lige'
p1016
g2
((lp1017
g1016
aS'eli'
p1018
aS'elijah'
p1019
atp1020
Rp1021
sg358
g2
((lp1022
g356
ag358
ag26
atp1023
Rp1024
sS'diana'
p1025
g2
((lp1026
g1025
aS'di'
p1027
aS'didi'
p1028
aS'dicey'
p1029
atp1030
Rp1031
sS'tamarra'
p1032
g2
((lp1033
g1032
aS'tammy'
p1034
atp1035
Rp1036
sS'diane'
p1037
g2
((lp1038
g1037
aS'di'
p1039
aS'didi'
p1040
aS'dicey'
p1041
atp1042
Rp1043
sS'elwood'
p1044
g2
((lp1045
S'ells'
p1046
ag1044
aS'elly'
p1047
atp1048
Rp1049
sS'doug'
p1050
g2
((lp1051
S'douglas'
p1052
ag1050
atp1053
Rp1054
sS'meaka'
p1055
g2
((lp1056
S'ken'
p1057
aS'mckenna'
p1058
aS'kenna'
p1059
ag1055
atp1060
Rp1061
sS'arielle'
p1062
g2
((lp1063
g1062
aS'arie'
p1064
atp1065
Rp1066
sS'mandy'
p1067
g2
((lp1068
g1067
aS'armanda'
p1069
aS'mari'
p1070
aS'amy'
p1071
aS'mandana'
p1072
aS'randy'
p1073
aS'manda'
p1074
aS'mira'
p1075
aS'miranda'
p1076
aS'amanda'
p1077
atp1078
Rp1079
sS'ry'
p1080
g2
((lp1081
g1080
aS'ryan'
p1082
atp1083
Rp1084
sg261
g2
((lp1085
g261
ag262
ag263
ag264
ag259
atp1086
Rp1087
sS'nita'
p1088
g2
((lp1089
S'juanita'
p1090
ag1088
atp1091
Rp1092
sg812
g2
((lp1093
g814
ag812
ag813
ag809
atp1094
Rp1095
sg1074
g2
((lp1096
g1071
ag1067
ag1074
ag1077
ag1072
atp1097
Rp1098
sg792
g2
((lp1099
g788
ag790
ag791
ag792
ag793
ag794
atp1100
Rp1101
sg589
g2
((lp1102
g587
ag591
ag589
atp1103
Rp1104
sS'clarence'
p1105
g2
((lp1106
S'clarinda'
p1107
aS'renee'
p1108
ag1105
aS'clay'
p1109
aS'clara'
p1110
atp1111
Rp1112
sS'tasha'
p1113
g2
((lp1114
S'tash'
p1115
aS'nat'
p1116
ag1113
aS'tashie'
p1117
aS'natasha'
p1118
atp1119
Rp1120
sS'fred'
p1121
g2
((lp1122
S'alfred'
p1123
ag34
aS'alf'
p1124
ag149
ag35
aS'al'
p1125
ag1121
ag38
aS'nando'
p1126
ag39
ag36
ag32
ag40
aS'alfreda'
p1127
aS'alfie'
p1128
ag147
aS'ferdinand'
p1129
aS'ferdinando'
p1130
aS'ferdie'
p1131
ag41
atp1132
Rp1133
sS'kayla'
p1134
g2
((lp1135
g1134
aS'kay'
p1136
atp1137
Rp1138
sS'jennie'
p1139
g2
((lp1140
S'jenny'
p1141
aS'virginia'
p1142
aS'ginger'
p1143
aS'jane'
p1144
ag1139
aS'joanna'
p1145
aS'jinie'
p1146
aS'jean'
p1147
aS'ginny'
p1148
aS'virgie'
p1149
atp1150
Rp1151
sS'euphemia'
p1152
g2
((lp1153
S'effie'
p1154
aS'effy'
p1155
ag1152
atp1156
Rp1157
sS'syl'
p1158
g2
((lp1159
S'vest'
p1160
aS'sly'
p1161
aS'sylvanus'
p1162
aS'sylvester'
p1163
ag1158
aS'vester'
p1164
aS'si'
p1165
aS'silvester'
p1166
atp1167
Rp1168
sg556
g2
((lp1169
S'nora'
p1170
ag556
atp1171
Rp1172
sg1108
g2
((lp1173
g1107
ag1108
ag1110
aS'clarence'
p1174
atp1175
Rp1176
sg387
g2
((lp1177
g380
ag387
ag378
atp1178
Rp1179
sS'lucina'
p1180
g2
((lp1181
g1180
aS'sinah'
p1182
atp1183
Rp1184
sS'nowell'
p1185
g2
((lp1186
g1185
aS'noel'
p1187
atp1188
Rp1189
sg501
g2
((lp1190
g501
ag502
ag503
ag504
ag505
ag499
atp1191
Rp1192
sS'louie'
p1193
g2
((lp1194
S'louis'
p1195
aS'lou'
p1196
ag1193
aS'lewis'
p1197
aS'louise'
p1198
atp1199
Rp1200
sS'maggie'
p1201
g2
((lp1202
g1201
aS'lena'
p1203
ag306
ag303
ag308
aS'madge'
p1204
ag310
ag311
ag312
ag313
ag307
ag314
ag317
ag315
aS'maddie'
p1205
aS'maud'
p1206
aS'middy'
p1207
ag316
aS'magdalena'
p1208
ag318
aS'madeline'
p1209
atp1210
Rp1211
sg516
g2
((lp1212
g516
ag517
ag518
ag514
ag519
atp1213
Rp1214
sS'gustavus'
p1215
g2
((lp1216
g1215
aS'gus'
p1217
atp1218
Rp1219
sg1046
g2
((lp1220
g1046
ag1044
ag1047
atp1221
Rp1222
sS'bridgit'
p1223
g2
((lp1224
S'delia'
p1225
ag1223
aS'bedelia'
p1226
atp1227
Rp1228
sS'mervyn'
p1229
g2
((lp1230
S'marvin'
p1231
aS'marv'
p1232
ag1229
aS'merv'
p1233
atp1234
Rp1235
sS'timothy'
p1236
g2
((lp1237
g1236
aS'tim'
p1238
atp1239
Rp1240
sS'jefferey'
p1241
g2
((lp1242
g1241
aS'jeff'
p1243
atp1244
Rp1245
sS'reuben'
p1246
g2
((lp1247
S'rube'
p1248
aS'ruby'
p1249
ag1246
atp1250
Rp1251
sg315
g2
((lp1252
g305
ag303
ag306
ag307
ag308
ag309
ag310
ag311
ag312
ag313
ag314
ag315
ag316
ag317
ag318
atp1253
Rp1254
sS'bazaleel'
p1255
g2
((lp1256
S'basil'
p1257
ag1255
atp1258
Rp1259
sS'dee'
p1260
g2
((lp1261
S'dorothea'
p1262
aS'lola'
p1263
aS'deanne'
p1264
aS'ann'
p1265
aS'dodie'
p1266
aS'audrey'
p1267
aS'dolly'
p1268
aS'delores'
p1269
aS'dorothy'
p1270
ag1260
aS'dot'
p1271
atp1272
Rp1273
sS'gilbert'
p1274
g2
((lp1275
S'bert'
p1276
aS'wilber'
p1277
aS'bertie'
p1278
ag1274
aS'gil'
p1279
aS'gib'
p1280
atp1281
Rp1282
sS'john'
p1283
g2
((lp1284
S'ian'
p1285
ag851
ag856
ag849
aS'nathan'
p1286
aS'jane'
p1287
aS'jon'
p1288
aS'jody'
p1289
aS'joanna'
p1290
aS'nat'
p1291
aS'ivan'
p1292
aS'jonathan'
p1293
aS'jean'
p1294
ag1283
aS'joan'
p1295
aS'johanna'
p1296
ag855
aS'jack'
p1297
atp1298
Rp1299
sS'sigismund'
p1300
g2
((lp1301
S'sig'
p1302
ag1300
atp1303
Rp1304
sS'lissia'
p1305
g2
((lp1306
g1305
aS'alyssa'
p1307
aS'ally'
p1308
aS'al'
p1309
atp1310
Rp1311
sS'albert'
p1312
g2
((lp1313
S'bert'
p1314
ag724
aS'adelbert'
p1315
ag1312
aS'al'
p1316
ag948
ag945
aS'del'
p1317
aS'delbert'
p1318
aS'alberta'
p1319
ag942
aS'bird'
p1320
ag949
atp1321
Rp1322
sS'helen'
p1323
g2
((lp1324
g187
ag189
aS'ella'
p1325
aS'nell'
p1326
aS'ellender'
p1327
ag1323
aS'elena'
p1328
aS'aileen'
p1329
ag55
aS'lanna'
p1330
aS'nellie'
p1331
aS'eleanor'
p1332
ag59
aS'lainie'
p1333
aS'ellen'
p1334
aS'elaine'
p1335
ag60
atp1336
Rp1337
sS'gretchen'
p1338
g2
((lp1339
g1338
aS'margaret'
p1340
atp1341
Rp1342
sS'mercy'
p1343
g2
((lp1344
S'polly'
p1345
aS'may'
p1346
aS'molly'
p1347
aS'marietta'
p1348
aS'mae'
p1349
aS'maureen'
p1350
aS'marie'
p1351
aS'maria'
p1352
aS'mariah'
p1353
ag1343
aS'mollie'
p1354
aS'sadie'
p1355
aS'mitzi'
p1356
aS'minnie'
p1357
aS'merci'
p1358
aS'mercedes'
p1359
aS'marion'
p1360
aS'mamie'
p1361
aS'mary'
p1362
atp1363
Rp1364
sS'kenji'
p1365
g2
((lp1366
S'kenj'
p1367
ag1365
aS'kay'
p1368
aS'kendra'
p1369
aS'kenny'
p1370
atp1371
Rp1372
sS'silla'
p1373
g2
((lp1374
S'drusilla'
p1375
aS'sarilla'
p1376
ag1373
atp1377
Rp1378
sS'melvina'
p1379
g2
((lp1380
S'vina'
p1381
ag1379
atp1382
Rp1383
sS'solomon'
p1384
g2
((lp1385
g1384
aS'sal'
p1386
aS'salmon'
p1387
aS'sol'
p1388
aS'solly'
p1389
aS'zolly'
p1390
atp1391
Rp1392
sS'rennie'
p1393
g2
((lp1394
S'rena'
p1395
ag1393
aS'irene'
p1396
atp1397
Rp1398
sg972
g2
((lp1399
g969
ag971
ag972
ag973
atp1400
Rp1401
sS'mina'
p1402
g2
((lp1403
S'minerva'
p1404
aS'wilma'
p1405
aS'nerva'
p1406
ag1402
aS'minnie'
p1407
aS'billie'
p1408
aS'william'
p1409
aS'wilhelm'
p1410
aS'helmie'
p1411
aS'wilhelmina'
p1412
aS'nervie'
p1413
aS'willie'
p1414
atp1415
Rp1416
sS'caleb'
p1417
g2
((lp1418
g1417
aS'cal'
p1419
atp1420
Rp1421
sg1143
g2
((lp1422
g1141
ag1142
ag1143
ag1144
aS'jennie'
p1423
ag1146
ag1149
ag1148
atp1424
Rp1425
sS'liley'
p1426
g2
((lp1427
g1426
aS'silence'
p1428
atp1429
Rp1430
sS'corny'
p1431
g2
((lp1432
S'neely'
p1433
aS'nelly'
p1434
aS'conny'
p1435
ag1431
aS'cornelia'
p1436
aS'cornelius'
p1437
aS'nelle'
p1438
atp1439
Rp1440
sS'telly'
p1441
g2
((lp1442
S'aristotle'
p1443
ag1441
atp1444
Rp1445
sg1131
g2
((lp1446
g1126
ag1129
ag1130
ag1131
aS'fred'
p1447
atp1448
Rp1449
sg973
g2
((lp1450
S'regina'
p1451
ag972
ag971
aS'raymond'
p1452
aS'gina'
p1453
ag969
ag973
atp1454
Rp1455
sS'rudolph'
p1456
g2
((lp1457
S'dolph'
p1458
aS'rollo'
p1459
aS'rudy'
p1460
ag1456
aS'rolf'
p1461
atp1462
Rp1463
sS'sibbell'
p1464
g2
((lp1465
S'sybill'
p1466
aS'sibbie'
p1467
aS'sibbilla'
p1468
ag1464
atp1469
Rp1470
sS'susie'
p1471
g2
((lp1472
S'suki'
p1473
aS'sue'
p1474
aS'sukey'
p1475
aS'susan'
p1476
aS'hannah'
p1477
aS'susannah'
p1478
ag1471
aS'suzanne'
p1479
aS'sudy'
p1480
atp1481
Rp1482
sS'eph'
p1483
g2
((lp1484
S'ephraim'
p1485
ag1483
atp1486
Rp1487
sS'maris'
p1488
g2
((lp1489
S'demerias'
p1490
ag1488
aS'dea'
p1491
aS'demaris'
p1492
aS'mary'
p1493
atp1494
Rp1495
sS'maddy'
p1496
g2
((lp1497
S'madison'
p1498
aS'mattie'
p1499
ag1496
atp1500
Rp1501
sS'victoria'
p1502
g2
((lp1503
S'victor'
p1504
aS'torrie'
p1505
aS'tory'
p1506
aS'vicki'
p1507
aS'toria'
p1508
ag1502
atp1509
Rp1510
sg559
g2
((lp1511
g553
ag685
ag559
ag557
ag552
atp1512
Rp1513
sS'marie'
p1514
g2
((lp1515
g1345
ag1346
ag1347
ag1348
aS'mae'
p1516
ag1350
ag1514
aS'maria'
p1517
aS'mariah'
p1518
ag1343
ag1354
ag1356
ag1357
ag1360
aS'mamie'
p1519
aS'mary'
p1520
atp1521
Rp1522
sS'maria'
p1523
g2
((lp1524
g1345
ag1346
ag1347
ag1348
aS'mae'
p1525
ag1350
aS'marie'
p1526
ag1523
aS'mariah'
p1527
ag1343
ag1354
ag1356
ag1357
ag1360
ag1519
aS'mary'
p1528
atp1529
Rp1530
sS'richard'
p1531
g2
((lp1532
S'ritchie'
p1533
aS'dick'
p1534
ag1531
aS'richie'
p1535
aS'rick'
p1536
atp1537
Rp1538
sS'dom'
p1539
g2
((lp1540
S'nick'
p1541
aS'dominic'
p1542
aS'nicky'
p1543
ag1539
atp1544
Rp1545
sS'dob'
p1546
g2
((lp1547
S'roberta'
p1548
aS'bobby'
p1549
ag1546
aS'robert'
p1550
aS'dobbin'
p1551
aS'rob'
p1552
aS'bob'
p1553
aS'rupert'
p1554
aS'robin'
p1555
atp1556
Rp1557
sg1117
g2
((lp1558
S'tasha'
p1559
ag1115
ag1117
atp1560
Rp1561
sS'mildred'
p1562
g2
((lp1563
S'mimi'
p1564
ag1562
aS'mell'
p1565
aS'milly'
p1566
atp1567
Rp1568
sS'constance'
p1569
g2
((lp1570
S'constant'
p1571
ag1569
aS'connie'
p1572
atp1573
Rp1574
sg1271
g2
((lp1575
g1270
ag1262
aS'dee'
p1576
ag1271
ag1268
atp1577
Rp1578
sS'agnes'
p1579
g2
((lp1580
S'nannie'
p1581
aS'ag'
p1582
aS'ann'
p1583
aS'nan'
p1584
aS'addy'
p1585
aS'inez'
p1586
aS'agatha'
p1587
aS'nessie'
p1588
aS'nancy'
p1589
aS'aggie'
p1590
aS'aggy'
p1591
aS'nance'
p1592
ag1579
atp1593
Rp1594
sg1197
g2
((lp1595
g1195
ag1196
ag1193
ag1197
ag1198
atp1596
Rp1597
sg1155
g2
((lp1598
g1154
ag1155
ag1152
atp1599
Rp1600
sS'teresa'
p1601
g2
((lp1602
S'tyrza'
p1603
ag1601
aS'tessie'
p1604
aS'terry'
p1605
aS'tess'
p1606
atp1607
Rp1608
sS'bonnie'
p1609
g2
((lp1610
S'babs'
p1611
aS'barb'
p1612
aS'bobbie'
p1613
aS'barbie'
p1614
aS'barby'
p1615
aS'barbara'
p1616
ag1609
atp1617
Rp1618
sg272
g2
((lp1619
g269
ag270
ag267
ag271
ag272
ag273
ag274
ag275
ag276
ag277
ag278
ag279
ag280
ag281
ag282
ag283
ag284
ag285
atp1620
Rp1621
sS'deedee'
p1622
g2
((lp1623
S'nada'
p1624
aS'nadine'
p1625
ag1622
aS'deidre'
p1626
atp1627
Rp1628
sS'louise'
p1629
g2
((lp1630
S'eloise'
p1631
ag1197
aS'lulu'
p1632
aS'lois'
p1633
aS'issie'
p1634
aS'heloise'
p1635
ag1629
ag1195
aS'eliza'
p1636
ag1196
ag1193
atp1637
Rp1638
sS'rick'
p1639
g2
((lp1640
g1531
ag34
ag1534
ag35
ag36
aS'ricky'
p1641
ag38
ag39
ag32
ag1639
ag1533
aS'erica'
p1642
ag1535
aS'eric'
p1643
ag37
ag40
atp1644
Rp1645
sS'adolphus'
p1646
g2
((lp1647
S'dolph'
p1648
aS'ado'
p1649
ag1646
aS'adolph'
p1650
atp1651
Rp1652
sS'mena'
p1653
g2
((lp1654
S'almena'
p1655
ag1653
aS'allie'
p1656
atp1657
Rp1658
sS'monica'
p1659
g2
((lp1660
S'monna'
p1661
ag1659
aS'monnie'
p1662
atp1663
Rp1664
sS'wallie'
p1665
g2
((lp1666
S'wally'
p1667
ag1665
aS'wallace'
p1668
atp1669
Rp1670
sS'cecilia'
p1671
g2
((lp1672
S'sheila'
p1673
aS'cissy'
p1674
ag1671
aS'celia'
p1675
aS'cecil'
p1676
atp1677
Rp1678
sg1039
g2
((lp1679
g1039
ag1025
ag1040
ag1037
ag1041
atp1680
Rp1681
sS'vannie'
p1682
g2
((lp1683
S'van'
p1684
aS'savannah'
p1685
ag1682
aS'vanessa'
p1686
aS'vandalia'
p1687
aS'anna'
p1688
aS'nessa'
p1689
atp1690
Rp1691
sS'christopher'
p1692
g2
((lp1693
S'christian'
p1694
aS'kester'
p1695
aS'kit'
p1696
ag1692
aS'chris'
p1697
atp1698
Rp1699
sg1034
g2
((lp1700
g1032
ag1034
atp1701
Rp1702
sg1296
g2
((lp1703
g1287
ag1290
ag1289
ag1294
aS'john'
p1704
ag1295
ag1296
atp1705
Rp1706
sg518
g2
((lp1707
g516
ag517
ag518
ag514
ag519
atp1708
Rp1709
sS'bat'
p1710
g2
((lp1711
S'bartel'
p1712
ag1710
aS'bartholomew'
p1713
aS'barth'
p1714
aS'bart'
p1715
atp1716
Rp1717
sS'wyncha'
p1718
g2
((lp1719
S'vonnie'
p1720
aS'viney'
p1721
aS'vina'
p1722
ag1718
aS'lavonia'
p1723
aS'louvinia'
p1724
aS'lavinia'
p1725
atp1726
Rp1727
sS'lodi'
p1728
g2
((lp1729
S'melody'
p1730
ag1728
atp1731
Rp1732
sS'almina'
p1733
g2
((lp1734
g1733
aS'minnie'
p1735
atp1736
Rp1737
sS'clem'
p1738
g2
((lp1739
S'clement'
p1740
aS'clementine'
p1741
ag1738
atp1742
Rp1743
sg274
g2
((lp1744
g269
ag270
ag267
ag271
ag272
ag273
ag274
ag275
ag276
ag277
ag278
ag279
ag280
ag281
ag282
ag283
ag284
ag285
atp1745
Rp1746
sg493
g2
((lp1747
g488
ag489
ag490
ag491
ag486
ag492
ag493
atp1748
Rp1749
sS'pete'
p1750
g2
((lp1751
g1750
aS'pat'
p1752
aS'patrick'
p1753
aS'peter'
p1754
aS'patricia'
p1755
aS'patsy'
p1756
aS'paddy'
p1757
atp1758
Rp1759
sS'delpha'
p1760
g2
((lp1761
g1760
aS'philadelphia'
p1762
atp1763
Rp1764
sg382
g2
((lp1765
g382
aS'dora'
p1766
atp1767
Rp1768
sS'mitch'
p1769
g2
((lp1770
S'mitchell'
p1771
aS'michael'
p1772
ag1769
atp1773
Rp1774
sS'mur'
p1775
g2
((lp1776
S'muriel'
p1777
ag1775
atp1778
Rp1779
sg127
g2
((lp1780
g127
ag128
ag129
ag125
atp1781
Rp1782
sS'manola'
p1783
g2
((lp1784
g1783
aS'nonnie'
p1785
atp1786
Rp1787
sg350
g2
((lp1788
g346
aS'mel'
p1789
ag348
ag349
ag350
ag342
ag353
atp1790
Rp1791
sg734
g2
((lp1792
g733
ag731
ag734
ag735
atp1793
Rp1794
sg172
g2
((lp1795
g171
ag169
ag172
atp1796
Rp1797
sg256
g2
((lp1798
g253
ag254
ag255
ag251
ag256
atp1799
Rp1800
sS'debi'
p1801
g2
((lp1802
S'debbie'
p1803
aS'deb'
p1804
aS'deborah'
p1805
ag1801
aS'debby'
p1806
atp1807
Rp1808
sS'petronella'
p1809
g2
((lp1810
g1809
aS'nellie'
p1811
atp1812
Rp1813
sS'omi'
p1814
g2
((lp1815
S'naomi'
p1816
ag1814
atp1817
Rp1818
sS'vernon'
p1819
g2
((lp1820
S'laverne'
p1821
ag1819
aS'verna'
p1822
atp1823
Rp1824
sg1090
g2
((lp1825
g1090
ag1088
atp1826
Rp1827
sS'bram'
p1828
g2
((lp1829
S'abram'
p1830
aS'abraham'
p1831
aS'abe'
p1832
ag1828
atp1833
Rp1834
sg1395
g2
((lp1835
g1395
aS'serena'
p1836
ag1393
ag1396
atp1837
Rp1838
sg1226
g2
((lp1839
g1225
ag1223
ag1226
atp1840
Rp1841
sS'sullivan'
p1842
g2
((lp1843
g1842
aS'sully'
p1844
atp1845
Rp1846
sg657
g2
((lp1847
g654
ag655
ag656
ag652
ag657
ag658
atp1848
Rp1849
sS'karen'
p1850
g2
((lp1851
S'karon'
p1852
aS'happy'
p1853
aS'carrie'
p1854
aS'karonhappuck'
p1855
aS'kathleen'
p1856
aS'catherine'
p1857
aS'kit'
p1858
aS'cathy'
p1859
ag1850
aS'katharine'
p1860
aS'kay'
p1861
aS'katie'
p1862
aS'kittie'
p1863
atp1864
Rp1865
sg300
g2
((lp1866
g299
ag300
ag296
ag298
atp1867
Rp1868
sS'cilla'
p1869
g2
((lp1870
S'ciller'
p1871
aS'prissy'
p1872
aS'cicely'
p1873
aS'cil'
p1874
aS'siller'
p1875
ag1869
aS'priscilla'
p1876
atp1877
Rp1878
sS'katarina'
p1879
g2
((lp1880
S'catherine'
p1881
ag1879
aS'tina'
p1882
atp1883
Rp1884
sg1876
g2
((lp1885
g1871
ag1872
ag1875
aS'cilla'
p1886
ag1876
ag1874
atp1887
Rp1888
sS'appoline'
p1889
g2
((lp1890
g1889
aS'appie'
p1891
aS'appy'
p1892
atp1893
Rp1894
sg919
g2
((lp1895
g917
ag919
atp1896
Rp1897
sS'sigfrid'
p1898
g2
((lp1899
g1898
aS'sid'
p1900
atp1901
Rp1902
sS'cyrus'
p1903
g2
((lp1904
S'cy'
p1905
ag1903
atp1906
Rp1907
sg122
g2
((lp1908
g122
ag120
atp1909
Rp1910
sS'tine'
p1911
g2
((lp1912
S'martine'
p1913
ag1911
atp1914
Rp1915
sg40
g2
((lp1916
g34
ag35
ag36
ag37
ag38
ag39
ag32
ag40
ag41
atp1917
Rp1918
sg9
g2
((lp1919
g1
ag14
ag1881
aS'christiana'
p1920
ag641
ag6
aS'christy'
p1921
aS'chris'
p1922
aS'crissy'
p1923
aS'ernestine'
p1924
ag11
ag7
aS'xina'
p1925
aS'christine'
p1926
ag4
ag5
ag1879
ag642
ag8
ag9
aS'ernest'
p1927
ag10
atp1928
Rp1929
sg1257
g2
((lp1930
g1257
ag1255
atp1931
Rp1932
sS'hosie'
p1933
g2
((lp1934
S'hosea'
p1935
aS'hosey'
p1936
ag1933
atp1937
Rp1938
sS'life'
p1939
g2
((lp1940
g1939
aS'eliphalel'
p1941
atp1942
Rp1943
sS'sydney'
p1944
g2
((lp1945
g1944
aS'sid'
p1946
atp1947
Rp1948
sS'irving'
p1949
g2
((lp1950
S'irvin'
p1951
ag1949
atp1952
Rp1953
sS'davy'
p1954
g2
((lp1955
S'vida'
p1956
ag1954
aS'david'
p1957
atp1958
Rp1959
sS'emmie'
p1960
g2
((lp1961
g1960
aS'erma'
p1962
aS'emma'
p1963
aS'emily'
p1964
atp1965
Rp1966
sS'evelina'
p1967
g2
((lp1968
S'evelyn'
p1969
ag1967
aS'ev'
p1970
aS'eve'
p1971
atp1972
Rp1973
sg805
g2
((lp1974
g803
ag804
ag805
ag801
ag806
atp1975
Rp1976
sS'lionel'
p1977
g2
((lp1978
S'leon'
p1979
ag1977
atp1980
Rp1981
sg926
g2
((lp1982
S'adeline'
p1983
aS'delilah'
p1984
ag924
ag922
ag925
aS'addie'
p1985
aS'dell'
p1986
ag926
ag927
aS'heide'
p1987
aS'della'
p1988
aS'adelaide'
p1989
atp1990
Rp1991
sg811
g2
((lp1992
g811
aS'danny'
p1993
aS'dan'
p1994
atp1995
Rp1996
sS'govie'
p1997
g2
((lp1998
g1997
aS'governor'
p1999
atp2000
Rp2001
sg1161
g2
((lp2002
g1160
ag1161
ag1162
ag1163
ag1158
ag1164
ag1165
ag1166
atp2003
Rp2004
sS'sampson'
p2005
g2
((lp2006
g2005
aS'sam'
p2007
atp2008
Rp2009
sS'thomasa'
p2010
g2
((lp2011
S'tamzine'
p2012
ag2010
atp2013
Rp2014
sg384
g2
((lp2015
g384
aS'dora'
p2016
atp2017
Rp2018
sg1988
g2
((lp2019
g142
ag140
ag1983
ag137
ag1985
aS'adela'
p2020
aS'ada'
p2021
ag139
ag1987
ag1989
aS'rhodella'
p2022
ag1988
atp2023
Rp2024
sg740
g2
((lp2025
g740
ag745
aS'ronnie'
p2026
ag743
ag742
atp2027
Rp2028
sS'tillie'
p2029
g2
((lp2030
g2029
aS'mathilda'
p2031
ag656
ag657
aS'tilford'
p2032
ag655
ag658
ag652
aS'patty'
p2033
atp2034
Rp2035
sS'archilles'
p2036
g2
((lp2037
g2036
aS'kill'
p2038
aS'killis'
p2039
atp2040
Rp2041
sS'alsoamalename'
p2042
g2
((lp2043
g2042
aS'nancy'
p2044
atp2045
Rp2046
sg850
g2
((lp2047
g846
ag850
ag844
atp2048
Rp2049
sS'elmira'
p2050
g2
((lp2051
g2050
aS'mira'
p2052
atp2053
Rp2054
sS'jess'
p2055
g2
((lp2056
S'jessie'
p2057
aS'janet'
p2058
aS'jessica'
p2059
ag2055
aS'jane'
p2060
aS'sica'
p2061
aS'jesse'
p2062
atp2063
Rp2064
sg46
g2
((lp2065
g46
ag44
ag47
atp2066
Rp2067
sg759
g2
((lp2068
g798
ag765
ag766
ag767
ag760
ag761
ag759
ag768
ag762
ag764
ag772
ag771
ag770
atp2069
Rp2070
sS'myrti'
p2071
g2
((lp2072
S'myrt'
p2073
ag2071
aS'myrtle'
p2074
aS'mert'
p2075
atp2076
Rp2077
sg876
g2
((lp2078
g798
aS'bell'
p2079
ag765
ag874
ag766
aS'belinda'
p2080
ag767
ag760
ag761
ag875
ag759
ag768
ag876
ag872
aS'linda'
p2081
ag772
ag771
ag770
atp2082
Rp2083
sg413
g2
((lp2084
g409
aS'jeremy'
p2085
aS'jeremiah'
p2086
ag431
ag411
ag412
ag434
ag413
ag429
ag435
atp2087
Rp2088
sS'roland'
p2089
g2
((lp2090
S'orlando'
p2091
aS'rowland'
p2092
ag2089
atp2093
Rp2094
sS'dotha'
p2095
g2
((lp2096
g2095
aS'dotty'
p2097
atp2098
Rp2099
sg352
g2
((lp2100
g340
ag338
aS'cammy'
p2101
ag341
aS'camille'
p2102
aS'emeline'
p2103
ag343
ag352
aS'emmer'
p2104
aS'emmy'
p2105
aS'lina'
p2106
ag344
atp2107
Rp2108
sg625
g2
((lp2109
g625
ag626
ag629
ag630
ag628
aS'henry'
p2110
ag632
ag633
aS'harry'
p2111
ag634
ag635
atp2112
Rp2113
sg765
g2
((lp2114
g798
ag765
ag766
ag767
ag760
ag761
ag759
ag768
ag762
ag764
ag772
ag771
ag770
atp2115
Rp2116
sS'ezideen'
p2117
g2
((lp2118
g2117
aS'ez'
p2119
atp2120
Rp2121
sg1325
g2
((lp2122
g72
ag1330
ag73
ag1325
ag1332
aS'elaine'
p2123
ag1334
aS'helen'
p2124
ag55
ag70
ag60
atp2125
Rp2126
sg385
g2
((lp2127
g262
aS'dora'
p2128
ag261
ag263
ag385
ag259
atp2129
Rp2130
sg1858
g2
((lp2131
g1694
ag1856
ag1857
ag1695
ag1858
ag1859
ag1850
ag1697
ag1860
ag1692
ag1861
ag1862
ag1863
atp2132
Rp2133
sg1047
g2
((lp2134
g1046
ag1044
ag1047
atp2135
Rp2136
sS'josey'
p2137
g2
((lp2138
S'josephine'
p2139
aS'joseie'
p2140
aS'jo'
p2141
ag2137
aS'joey'
p2142
atp2143
Rp2144
sg851
g2
((lp2145
g847
ag849
ag851
ag1297
ag852
ag853
ag854
ag855
ag856
atp2146
Rp2147
sS'kid'
p2148
g2
((lp2149
S'kezzie'
p2150
aS'kizzy'
p2151
aS'kezzy'
p2152
aS'keziah'
p2153
ag2148
atp2154
Rp2155
sS'lucas'
p2156
g2
((lp2157
S'luke'
p2158
aS'lucias'
p2159
ag2156
atp2160
Rp2161
sS'charlie'
p2162
g2
((lp2163
S'buck'
p2164
aS'charles'
p2165
aS'carl'
p2166
aS'chad'
p2167
ag2162
atp2168
Rp2169
sS'jedediah'
p2170
g2
((lp2171
S'dyer'
p2172
ag2170
aS'diah'
p2173
aS'jed'
p2174
atp2175
Rp2176
sg386
g2
((lp2177
S'dora'
p2178
ag386
atp2179
Rp2180
sg1147
g2
((lp2181
g847
ag851
ag852
ag849
ag856
ag1287
ag1139
ag1145
ag1289
ag1147
ag1704
ag1295
ag1296
ag855
ag1297
atp2182
Rp2183
sg584
g2
((lp2184
g580
ag578
ag581
ag582
ag583
ag584
atp2185
Rp2186
sS'anselm'
p2187
g2
((lp2188
S'ansel'
p2189
aS'selma'
p2190
aS'anse'
p2191
ag2187
aS'ance'
p2192
atp2193
Rp2194
sS'pheney'
p2195
g2
((lp2196
S'josephine'
p2197
ag2195
atp2198
Rp2199
sS'vic'
p2200
g2
((lp2201
g2200
aS'victor'
p2202
aS'vick'
p2203
atp2204
Rp2205
sS'roderick'
p2206
g2
((lp2207
g2206
aS'rod'
p2208
aS'erick'
p2209
aS'rickie'
p2210
atp2211
Rp2212
sg655
g2
((lp2213
g654
ag655
ag656
ag652
ag657
ag658
atp2214
Rp2215
sS'hodgekin'
p2216
g2
((lp2217
S'roger'
p2218
aS'hodge'
p2219
ag2216
atp2220
Rp2221
sS'campbell'
p2222
g2
((lp2223
g2222
aS'cam'
p2224
atp2225
Rp2226
sS'eli'
p2227
g2
((lp2228
g1016
ag2227
aS'ellis'
p2229
aS'lish'
p2230
ag1019
aS'elisha'
p2231
aS'elias'
p2232
atp2233
Rp2234
sS'hal'
p2235
g2
((lp2236
S'hank'
p2237
aS'harold'
p2238
ag2235
aS'howard'
p2239
aS'henry'
p2240
aS'harry'
p2241
ag632
ag633
aS'howie'
p2242
atp2243
Rp2244
sS'ham'
p2245
g2
((lp2246
S'hamilton'
p2247
ag2245
atp2248
Rp2249
sS'hetty'
p2250
g2
((lp2251
g625
ag626
aS'heather'
p2252
aS'mabel'
p2253
aS'mehitabel'
p2254
ag630
ag2250
aS'hester'
p2255
ag892
ag2110
aS'estherhessy'
p2256
ag634
ag635
atp2257
Rp2258
sg469
g2
((lp2259
g467
ag469
atp2260
Rp2261
sS'genevieve'
p2262
g2
((lp2263
g2262
aS'jenny'
p2264
aS'jinsey'
p2265
aS'gency'
p2266
atp2267
Rp2268
sg1535
g2
((lp2269
g1533
ag1534
ag1531
ag1535
ag1536
atp2270
Rp2271
sg1686
g2
((lp2272
g1686
aS'vannie'
p2273
ag1684
ag1689
atp2274
Rp2275
sg308
g2
((lp2276
g305
ag303
ag306
ag307
ag308
ag309
ag310
ag311
ag312
ag313
ag314
ag315
ag316
ag317
ag318
atp2277
Rp2278
sg1204
g2
((lp2279
g1201
ag1203
ag306
aS'margie'
p2280
ag303
ag308
ag1204
ag310
aS'marjorie'
p2281
ag311
ag312
ag313
ag307
ag314
ag315
ag1205
ag1206
ag1207
ag316
ag317
ag318
ag1209
atp2282
Rp2283
sS'zeely'
p2284
g2
((lp2285
g2284
aS'bezaleel'
p2286
atp2287
Rp2288
sg314
g2
((lp2289
g305
ag303
ag306
ag307
ag308
ag309
ag310
ag311
ag312
ag313
ag314
ag315
ag316
ag317
ag318
atp2290
Rp2291
sg1549
g2
((lp2292
g1548
ag1549
ag1546
ag1550
ag1551
ag1552
ag1553
ag1554
ag1555
atp2293
Rp2294
sg2091
g2
((lp2295
g2091
ag2092
ag2089
atp2296
Rp2297
sS'alice'
p2298
g2
((lp2299
S'elsie'
p2300
aS'alcy'
p2301
aS'lisa'
p2302
aS'alicia'
p2303
ag2298
aS'allie'
p2304
aS'elizabeth'
p2305
atp2306
Rp2307
sS'steph'
p2308
g2
((lp2309
S'stephen'
p2310
ag2308
aS'stephanie'
p2311
aS'annie'
p2312
aS'stephie'
p2313
atp2314
Rp2315
sS'gwendolyn'
p2316
g2
((lp2317
S'genny'
p2318
aS'gwen'
p2319
ag2316
aS'wendy'
p2320
atp2321
Rp2322
sS'thaney'
p2323
g2
((lp2324
S'beth'
p2325
aS'bethena'
p2326
ag2323
atp2327
Rp2328
sS'amos'
p2329
g2
((lp2330
S'mose'
p2331
aS'moss'
p2332
ag2329
aS'moses'
p2333
atp2334
Rp2335
sS'sebastian'
p2336
g2
((lp2337
g2336
aS'sebby'
p2338
atp2339
Rp2340
sg1741
g2
((lp2341
g1740
ag1741
ag1738
atp2342
Rp2343
sS'webb'
p2344
g2
((lp2345
g2344
aS'webster'
p2346
atp2347
Rp2348
sS'ola'
p2349
g2
((lp2350
g2349
aS'viola'
p2351
aS'vi'
p2352
atp2353
Rp2354
sS'lemuel'
p2355
g2
((lp2356
g2355
aS'lem'
p2357
atp2358
Rp2359
sS'jennifer'
p2360
g2
((lp2361
S'jan'
p2362
aS'jenny'
p2363
ag2360
atp2364
Rp2365
sg2219
g2
((lp2366
g2218
ag2219
ag2216
atp2367
Rp2368
sS'veda'
p2369
g2
((lp2370
S'laveda'
p2371
ag2369
atp2372
Rp2373
sS'densy'
p2374
g2
((lp2375
g2374
aS'prudy'
p2376
aS'prudence'
p2377
atp2378
Rp2379
sS'columbus'
p2380
g2
((lp2381
g2380
aS'lum'
p2382
atp2383
Rp2384
sS'cora'
p2385
g2
((lp2386
S'corinne'
p2387
ag2385
aS'ora'
p2388
atp2389
Rp2390
sg1355
g2
((lp2391
g527
aS'mercy'
p2392
ag1355
ag530
ag531
ag532
ag1358
ag533
ag534
ag1359
ag535
atp2393
Rp2394
sS'lucille'
p2395
g2
((lp2396
S'ceall'
p2397
ag2395
aS'lucy'
p2398
aS'cille'
p2399
atp2400
Rp2401
sS'burt'
p2402
g2
((lp2403
S'bert'
p2404
aS'egbert'
p2405
ag2402
atp2406
Rp2407
sS'jayme'
p2408
g2
((lp2409
g2408
aS'jay'
p2410
atp2411
Rp2412
sS'cory'
p2413
g2
((lp2414
S'coco'
p2415
aS'cordy'
p2416
ag2413
aS'ree'
p2417
atp2418
Rp2419
sS'seph'
p2420
g2
((lp2421
g2420
aS'persephone'
p2422
aS'sephy'
p2423
atp2424
Rp2425
sS'algy'
p2426
g2
((lp2427
S'algernon'
p2428
ag2426
atp2429
Rp2430
sS'obe'
p2431
g2
((lp2432
S'obadiah'
p2433
aS'dyer'
p2434
aS'diah'
p2435
aS'obed'
p2436
ag2431
aS'obie'
p2437
atp2438
Rp2439
sS'rafe'
p2440
g2
((lp2441
S'dolph'
p2442
ag2440
aS'randy'
p2443
aS'randolph'
p2444
aS'randall'
p2445
atp2446
Rp2447
sg2097
g2
((lp2448
g2095
ag2097
atp2449
Rp2450
sS'nerva'
p2451
g2
((lp2452
S'minerva'
p2453
ag2451
ag1402
aS'eve'
p2454
ag1407
aS'manerva'
p2455
aS'nervie'
p2456
atp2457
Rp2458
sS'kissy'
p2459
g2
((lp2460
S'kristine'
p2461
aS'calista'
p2462
aS'krissy'
p2463
ag2459
aS'kris'
p2464
atp2465
Rp2466
sS'cyphorus'
p2467
g2
((lp2468
S'cy'
p2469
ag2467
aS'osaforum'
p2470
aS'osaforus'
p2471
aS'syphorous'
p2472
aS'onicyphorous'
p2473
aS'one'
p2474
atp2475
Rp2476
sg1388
g2
((lp2477
g1384
ag1386
ag1387
ag1388
ag1389
ag1390
atp2478
Rp2479
sS'lois'
p2480
g2
((lp2481
S'eloise'
p2482
aS'louise'
p2483
aS'louis'
p2484
ag1636
ag1632
ag2480
aS'lou'
p2485
ag1634
aS'heloise'
p2486
atp2487
Rp2488
sS'abel'
p2489
g2
((lp2490
g2489
aS'abe'
p2491
atp2492
Rp2493
sS'manoah'
p2494
g2
((lp2495
g2494
aS'noah'
p2496
atp2497
Rp2498
sg2150
g2
((lp2499
g2150
ag2151
ag2152
ag2153
ag2148
atp2500
Rp2501
sS'joseph'
p2502
g2
((lp2503
g2502
aS'joe'
p2504
aS'joey'
p2505
atp2506
Rp2507
sg1280
g2
((lp2508
g1276
ag1277
ag1278
ag1274
ag1279
ag1280
atp2509
Rp2510
sg617
g2
((lp2511
g616
ag614
ag617
ag618
ag619
ag620
atp2512
Rp2513
sS'jane'
p2514
g2
((lp2515
S'angelina'
p2516
ag825
aS'angel'
p2517
aS'angeline'
p2518
ag1149
ag1142
ag1143
aS'jess'
p2519
ag1423
ag827
ag1146
aS'jincy'
p2520
aS'angie'
p2521
ag829
ag1296
ag830
aS'angelica'
p2522
ag824
ag826
ag1289
aS'jinsy'
p2523
aS'angela'
p2524
ag822
ag2514
ag1294
ag1704
ag1148
atp2525
Rp2526
sg1149
g2
((lp2527
g1141
ag1142
ag1143
ag1144
ag1423
ag1146
ag1149
ag1148
atp2528
Rp2529
sg1279
g2
((lp2530
g1276
ag1277
ag1278
ag1274
ag1279
ag1280
atp2531
Rp2532
sg1853
g2
((lp2533
g1852
aS'karen'
p2534
ag1855
ag1854
ag1853
atp2535
Rp2536
sg1314
g2
((lp2537
g1314
aS'hugo'
p2538
ag172
ag2405
ag1312
ag1316
ag948
ag2402
ag1318
aS'hubert'
p2539
aS'bobbie'
p2540
ag1274
ag949
aS'roberta'
p2541
aS'robbie'
p2542
ag945
aS'elbert'
p2543
ag1315
aS'robert'
p2544
ag727
aS'hugh'
p2545
ag169
aS'bertram'
p2546
ag1317
ag1280
ag1319
ag942
ag1279
ag1320
ag1277
atp2547
Rp2548
sg550
g2
((lp2549
g548
aS'leonora'
p2550
ag550
aS'nora'
p2551
ag558
atp2552
Rp2553
sS'kenzy'
p2554
g2
((lp2555
g2554
aS'mackenzie'
p2556
aS'mack'
p2557
aS'mac'
p2558
atp2559
Rp2560
sg254
g2
((lp2561
g253
ag254
ag255
ag251
ag256
atp2562
Rp2563
sg2153
g2
((lp2564
g2150
ag2151
ag2152
ag2153
ag2148
atp2565
Rp2566
sS'crys'
p2567
g2
((lp2568
S'chris'
p2569
aS'crystal'
p2570
aS'tal'
p2571
aS'stal'
p2572
ag2567
atp2573
Rp2574
sS'melanie'
p2575
g2
((lp2576
g2575
aS'mellie'
p2577
atp2578
Rp2579
sS'barticus'
p2580
g2
((lp2581
g2580
aS'bart'
p2582
atp2583
Rp2584
sg371
g2
((lp2585
g371
ag372
ag373
ag369
ag374
ag375
atp2586
Rp2587
sS'emil'
p2588
g2
((lp2589
g2588
aS'emily'
p2590
atp2591
Rp2592
sg2570
g2
((lp2593
g2569
ag2570
ag2571
ag2572
ag2567
atp2594
Rp2595
sg1412
g2
((lp2596
S'mina'
p2597
aS'minnie'
p2598
ag1408
ag1409
ag1410
ag1411
ag1412
ag1405
ag1414
atp2599
Rp2600
sg2456
g2
((lp2601
g2453
ag2451
ag1402
ag2454
ag1407
ag2455
ag2456
atp2602
Rp2603
sg35
g2
((lp2604
g34
ag35
ag36
ag37
ag38
ag39
ag32
ag40
ag41
atp2605
Rp2606
sS'ezekiel'
p2607
g2
((lp2608
S'ez'
p2609
ag2607
aS'zeke'
p2610
atp2611
Rp2612
sg90
g2
((lp2613
g84
ag85
ag86
ag87
aS'cassey'
p2614
ag82
aS'sandi'
p2615
aS'cass'
p2616
aS'sandra'
p2617
ag88
ag89
ag90
aS'cassandra'
p2618
atp2619
Rp2620
sg1989
g2
((lp2621
g1984
ag1983
ag1986
ag1985
ag2020
ag2021
ag1987
ag1989
ag1988
atp2622
Rp2623
sS'samson'
p2624
g2
((lp2625
g2624
aS'sam'
p2626
atp2627
Rp2628
sS'theotha'
p2629
g2
((lp2630
S'otha'
p2631
ag2629
atp2632
Rp2633
sg1238
g2
((lp2634
g1236
ag1238
atp2635
Rp2636
sg1461
g2
((lp2637
g1458
ag1459
ag1460
ag1456
ag1461
atp2638
Rp2639
sg285
g2
((lp2640
g269
ag270
aS'trissy'
p2641
ag267
ag1605
ag1601
aS'theresa'
p2642
ag271
ag272
ag1603
ag273
ag274
ag275
aS'tracy'
p2643
ag276
ag277
ag278
ag279
aS'thursa'
p2644
ag280
ag1604
ag281
ag282
aS'ticy'
p2645
ag283
ag284
ag285
atp2646
Rp2647
sg1350
g2
((lp2648
g1345
ag1346
ag1347
ag1348
ag1349
ag1350
ag1351
ag1352
ag1353
ag1343
ag1354
ag1356
ag1357
ag1360
ag1361
ag1362
atp2649
Rp2650
sg1076
g2
((lp2651
g1073
aS'mandy'
p2652
ag1070
ag1076
ag1075
atp2653
Rp2654
sS'beda'
p2655
g2
((lp2656
S'obed'
p2657
ag2655
aS'beedy'
p2658
aS'obedience'
p2659
aS'biddie'
p2660
atp2661
Rp2662
sS'justus'
p2663
g2
((lp2664
g2663
aS'justin'
p2665
aS'justina'
p2666
atp2667
Rp2668
sS'cathleen'
p2669
g2
((lp2670
g2669
aS'catherine'
p2671
atp2672
Rp2673
sS'ron'
p2674
g2
((lp2675
g744
aS'aaron'
p2676
ag738
ag2674
atp2677
Rp2678
sg1552
g2
((lp2679
g1548
ag1549
ag1546
ag1550
ag1551
ag1552
ag1553
ag1554
ag1555
atp2680
Rp2681
sS'bridie'
p2682
g2
((lp2683
S'delia'
p2684
aS'biddy'
p2685
ag2682
aS'bridget'
p2686
aS'brie'
p2687
atp2688
Rp2689
sg2208
g2
((lp2690
g2206
ag2208
ag2209
ag2210
atp2691
Rp2692
sg1498
g2
((lp2693
g1498
ag1499
ag1496
atp2694
Rp2695
sS'laura'
p2696
g2
((lp2697
g564
aS'laurinda'
p2698
aS'lawrence'
p2699
aS'etta'
p2700
ag566
aS'retta'
p2701
ag2696
ag568
ag569
ag570
aS'loretta'
p2702
aS'lorrie'
p2703
ag562
atp2704
Rp2705
sS'roy'
p2706
g2
((lp2707
S'leroy'
p2708
ag2706
aS'lee'
p2709
atp2710
Rp2711
sS'marion'
p2712
g2
((lp2713
g472
ag1345
ag1346
ag1347
ag1348
ag2712
ag1350
ag1351
ag1352
ag1353
ag1343
ag475
ag1354
ag1356
ag1357
ag1349
ag1361
aS'mary'
p2714
atp2715
Rp2716
sg1318
g2
((lp2717
g1314
ag1315
ag1312
ag1317
ag1318
atp2718
Rp2719
sS'marissa'
p2720
g2
((lp2721
g2720
aS'rissa'
p2722
atp2723
Rp2724
sg2428
g2
((lp2725
g2428
ag2426
atp2726
Rp2727
sg1207
g2
((lp2728
g1201
ag1203
ag1206
ag1207
ag1209
ag1205
ag1204
atp2729
Rp2730
sg447
g2
((lp2731
g446
ag443
ag447
ag439
ag445
atp2732
Rp2733
sg2165
g2
((lp2734
g2164
ag704
ag2167
ag703
ag2162
ag2165
ag707
aS'carlotta'
p2735
ag2166
ag705
aS'lottie'
p2736
atp2737
Rp2738
sg1951
g2
((lp2739
g1951
ag1949
atp2740
Rp2741
sg396
g2
((lp2742
g1474
ag1475
ag1476
ag396
ag397
ag398
ag395
ag1471
ag1479
ag1480
ag399
ag393
atp2743
Rp2744
sS'crate'
p2745
g2
((lp2746
S'socrates'
p2747
ag2745
atp2748
Rp2749
sg434
g2
((lp2750
g429
ag431
ag432
ag433
ag434
ag435
ag436
atp2751
Rp2752
sS'delphia'
p2753
g2
((lp2754
g2753
aS'philadelphia'
p2755
atp2756
Rp2757
sg317
g2
((lp2758
S'maggie'
p2759
aS'meg'
p2760
aS'megan'
p2761
aS'midge'
p2762
aS'greta'
p2763
ag317
aS'metta'
p2764
aS'maisie'
p2765
aS'peggie'
p2766
aS'marge'
p2767
aS'daisy'
p2768
aS'madge'
p2769
ag318
aS'margo'
p2770
atp2771
Rp2772
sg626
g2
((lp2773
g625
ag626
ag2110
ag630
ag628
ag634
ag635
atp2774
Rp2775
sS'ollie'
p2776
g2
((lp2777
S'olive'
p2778
aS'oliver'
p2779
ag2776
atp2780
Rp2781
sg1735
g2
((lp2782
g1404
ag1414
ag1406
ag1345
ag1346
ag1402
ag1347
ag1408
ag1409
ag46
ag1348
ag1349
ag44
ag1350
ag1733
ag1351
ag1352
ag1353
ag1343
ag1411
ag1405
ag1354
ag1361
ag1356
ag1735
ag1410
ag1412
ag1360
ag1413
aS'elminie'
p2783
ag1362
atp2784
Rp2785
sS'gus'
p2786
g2
((lp2787
g1215
ag1
ag538
ag14
aS'gussie'
p2788
ag541
aS'guss'
p2789
aS'augusta'
p2790
ag2786
aS'augie'
p2791
ag9
ag6
aS'aggy'
p2792
ag11
atp2793
Rp2794
sg1451
g2
((lp2795
g1451
ag1453
aS'ray'
p2796
atp2797
Rp2798
sS'gatty'
p2799
g2
((lp2800
S'gertrude'
p2801
ag2799
aS'gertie'
p2802
aS'trudy'
p2803
atp2804
Rp2805
sg716
g2
((lp2806
g715
ag716
aS'iggy'
p2807
aS'nace'
p2808
atp2809
Rp2810
sg247
g2
((lp2811
g246
ag247
ag244
ag248
atp2812
Rp2813
sS'samyra'
p2814
g2
((lp2815
S'myra'
p2816
ag2814
atp2817
Rp2818
sS'sulie'
p2819
g2
((lp2820
S'ursula'
p2821
ag2819
aS'sula'
p2822
atp2823
Rp2824
sg1411
g2
((lp2825
g2597
ag2598
ag1408
ag1409
ag1410
ag1411
ag1412
ag1405
ag1414
atp2826
Rp2827
sS'trisha'
p2828
g2
((lp2829
S'trissy'
p2830
aS'beatrice'
p2831
ag2828
aS'bea'
p2832
aS'trixie'
p2833
atp2834
Rp2835
sS'colie'
p2836
g2
((lp2837
g2836
aS'cole'
p2838
atp2839
Rp2840
sg697
g2
((lp2841
g696
ag697
ag694
ag698
atp2842
Rp2843
sS'junius'
p2844
g2
((lp2845
S'june'
p2846
ag2844
atp2847
Rp2848
sS'simeon'
p2849
g2
((lp2850
S'simon'
p2851
ag2849
aS'sim'
p2852
atp2853
Rp2854
sg1614
g2
((lp2855
g1611
ag1612
ag1613
ag1614
ag1615
ag1616
ag1609
atp2856
Rp2857
sg763
g2
((lp2858
g757
aS'louise'
p2859
ag2484
ag763
ag1632
aS'lois'
p2860
ag2485
ag1634
aS'eloise'
p2861
atp2862
Rp2863
sg1604
g2
((lp2864
g1603
ag2641
ag2645
ag1604
ag1601
ag2642
ag1605
ag2643
ag2644
ag1606
atp2865
Rp2866
sS'addy'
p2867
g2
((lp2868
g1587
aS'ad'
p2869
ag1582
ag1590
ag2867
ag1579
atp2870
Rp2871
sS'ophi'
p2872
g2
((lp2873
g2872
aS'theophilus'
p2874
atp2875
Rp2876
sg1565
g2
((lp2877
g1564
ag1562
ag1565
ag1566
atp2878
Rp2879
sS'l.b.'
p2880
g2
((lp2881
S'little'
p2882
aS'berry'
p2883
ag2880
aS'littleberry'
p2884
atp2885
Rp2886
sg2516
g2
((lp2887
g2522
ag2516
aS'lina'
p2888
ag2517
ag2518
ag2514
ag2521
ag2524
atp2889
Rp2890
sg924
g2
((lp2891
g926
aS'adeline'
p2892
ag924
ag927
ag922
ag925
atp2893
Rp2894
sg2518
g2
((lp2895
g2522
ag2516
ag2517
ag2518
ag2514
ag2521
ag2524
atp2896
Rp2897
sS'pernetta'
p2898
g2
((lp2899
g2898
aS'nettie'
p2900
atp2901
Rp2902
sg2164
g2
((lp2903
g2164
ag2165
ag2166
ag2167
ag2162
atp2904
Rp2905
sg1490
g2
((lp2906
S'dea'
p2907
ag1490
aS'maris'
p2908
aS'mary'
p2909
atp2910
Rp2911
sg2410
g2
((lp2912
g2408
ag2410
atp2913
Rp2914
sS'malc'
p2915
g2
((lp2916
S'mac'
p2917
aS'malcolm'
p2918
ag2915
aS'mal'
p2919
atp2920
Rp2921
sS'franklin'
p2922
g2
((lp2923
S'frank'
p2924
ag2922
atp2925
Rp2926
sg1553
g2
((lp2927
g1548
ag1549
ag1546
ag1550
ag1551
ag1552
ag1553
ag1554
ag1555
atp2928
Rp2929
sg2101
g2
((lp2930
g2102
ag2101
aS'millie'
p2931
atp2932
Rp2933
sg390
g2
((lp2934
S'dora'
p2935
ag390
atp2936
Rp2937
sg1058
g2
((lp2938
g1057
ag1058
ag1059
ag1055
atp2939
Rp2940
sg281
g2
((lp2941
g269
ag270
ag267
ag271
ag272
ag273
ag274
ag275
ag276
ag277
ag278
ag279
ag280
ag281
ag282
ag283
ag284
ag285
atp2942
Rp2943
sg95
g2
((lp2944
g95
ag96
ag97
ag93
ag98
ag99
ag100
ag101
ag102
ag103
ag104
atp2945
Rp2946
sS'russell'
p2947
g2
((lp2948
S'russ'
p2949
ag2947
atp2950
Rp2951
sg2313
g2
((lp2952
g2310
ag2308
ag2311
ag2312
ag2313
atp2953
Rp2954
sg2524
g2
((lp2955
g2522
ag2516
ag2517
ag2518
ag2514
ag2521
ag2524
atp2956
Rp2957
sg2722
g2
((lp2958
g2720
ag2722
atp2959
Rp2960
sg680
g2
((lp2961
g680
ag678
ag681
atp2962
Rp2963
sg364
g2
((lp2964
g363
ag364
ag365
ag361
ag366
atp2965
Rp2966
sS'abijah'
p2967
g2
((lp2968
g2967
aS'ab'
p2969
aS'bige'
p2970
atp2971
Rp2972
sS'provy'
p2973
g2
((lp2974
S'providence'
p2975
ag2973
atp2976
Rp2977
sS'pres'
p2978
g2
((lp2979
S'prescott'
p2980
aS'scott'
p2981
ag2978
atp2982
Rp2983
sg2970
g2
((lp2984
g2967
ag2969
ag2970
atp2985
Rp2986
sS'alastair'
p2987
g2
((lp2988
S'al'
p2989
ag2987
atp2990
Rp2991
sS'felty'
p2992
g2
((lp2993
S'vallie'
p2994
aS'val'
p2995
aS'valentina'
p2996
aS'valentine'
p2997
ag2992
atp2998
Rp2999
sg2778
g2
((lp3000
S'oliver'
p3001
aS'olivia'
p3002
ag2778
aS'livia'
p3003
ag2776
atp3004
Rp3005
sg343
g2
((lp3006
g341
ag340
ag343
ag338
ag352
ag344
atp3007
Rp3008
sS'claud'
p3009
g2
((lp3010
S'claudia'
p3011
ag3009
atp3012
Rp3013
sg790
g2
((lp3014
g788
ag790
ag791
ag792
ag793
ag794
atp3015
Rp3016
sS'malinda'
p3017
g2
((lp3018
S'lindy'
p3019
ag3017
atp3020
Rp3021
sg490
g2
((lp3022
g488
ag489
ag490
ag491
ag486
ag492
ag493
atp3023
Rp3024
sg705
g2
((lp3025
g703
ag2735
ag2736
ag704
ag705
ag706
ag707
atp3026
Rp3027
sg791
g2
((lp3028
g788
ag790
ag791
ag792
ag793
ag794
atp3029
Rp3030
sg2472
g2
((lp3031
g2469
ag2467
ag2470
ag2471
ag2472
ag2473
ag2474
atp3032
Rp3033
sS'jude'
p3034
g2
((lp3035
g790
aS'judah'
p3036
aS'juder'
p3037
ag791
ag788
ag3034
ag793
ag792
atp3038
Rp3039
sg793
g2
((lp3040
g788
ag790
ag791
ag792
ag793
ag794
atp3041
Rp3042
sg60
g2
((lp3043
g57
ag58
ag59
ag60
ag61
ag55
atp3044
Rp3045
sg603
g2
((lp3046
g601
ag602
ag599
ag603
ag604
ag605
atp3047
Rp3048
sg1419
g2
((lp3049
g1417
aS'calvin'
p3050
ag1419
atp3051
Rp3052
sg2346
g2
((lp3053
g2344
ag2346
atp3054
Rp3055
sg1118
g2
((lp3056
g1113
ag1116
ag1118
atp3057
Rp3058
sS'lessie'
p3059
g2
((lp3060
S'celeste'
p3061
ag3059
aS'celia'
p3062
atp3063
Rp3064
sS'edna'
p3065
g2
((lp3066
g3065
aS'edny'
p3067
atp3068
Rp3069
sS'reynold'
p3070
g2
((lp3071
S'rex'
p3072
aS'reggie'
p3073
ag3070
aS'reginald'
p3074
aS'reg'
p3075
atp3076
Rp3077
sg3067
g2
((lp3078
g3065
ag3067
atp3079
Rp3080
sS'gabby'
p3081
g2
((lp3082
S'gabriel'
p3083
aS'gabe'
p3084
ag3081
aS'garbrielle'
p3085
atp3086
Rp3087
sg275
g2
((lp3088
g269
ag270
ag267
ag271
ag272
ag273
ag274
ag275
ag276
ag277
ag278
ag279
ag280
ag281
ag282
ag283
ag284
ag285
atp3089
Rp3090
sg2520
g2
((lp3091
S'jane'
p3092
ag2520
atp3093
Rp3094
sS'dennis'
p3095
g2
((lp3096
S'denise'
p3097
ag3095
atp3098
Rp3099
sS'alverta'
p3100
g2
((lp3101
S'virdie'
p3102
ag3100
aS'vert'
p3103
atp3104
Rp3105
sS'pink'
p3106
g2
((lp3107
g3106
aS'pinckney'
p3108
atp3109
Rp3110
sS'sidney'
p3111
g2
((lp3112
g3111
aS'sid'
p3113
atp3114
Rp3115
sg670
g2
((lp3116
g668
ag666
ag669
ag670
atp3117
Rp3118
sS'dosie'
p3119
g2
((lp3120
S'dossie'
p3121
aS'eudoris'
p3122
ag3119
atp3123
Rp3124
sg3085
g2
((lp3125
g3083
ag3084
ag3081
ag3085
atp3126
Rp3127
sS'levy'
p3128
g2
((lp3129
g3128
aS'aleva'
p3130
aS'leve'
p3131
atp3132
Rp3133
sS'samuel'
p3134
g2
((lp3135
S'sonny'
p3136
ag3134
aS'sam'
p3137
atp3138
Rp3139
sS'mat'
p3140
g2
((lp3141
S'marty'
p3142
ag654
ag3140
ag658
aS'marnie'
p3143
aS'patsy'
p3144
aS'mart'
p3145
ag652
aS'mattie'
p3146
ag655
ag657
aS'martha'
p3147
aS'patty'
p3148
atp3149
Rp3150
sg1346
g2
((lp3151
g1345
ag1346
ag1347
ag1348
ag1349
ag1350
ag1351
ag1352
ag1353
ag1343
ag1354
ag1356
ag1357
ag1360
ag1361
ag1362
atp3152
Rp3153
sS'max'
p3154
g2
((lp3155
g3154
aS'maxine'
p3156
atp3157
Rp3158
sS'gerhardt'
p3159
g2
((lp3160
g3159
aS'gay'
p3161
atp3162
Rp3163
sg610
g2
((lp3164
g610
ag2919
ag608
ag2554
ag2918
ag611
ag2556
ag2915
atp3165
Rp3166
sg1516
g2
((lp3167
g1345
ag1346
ag1347
ag1348
ag1516
ag1350
ag1514
ag1517
ag1518
ag1343
ag1354
ag1356
ag1357
ag1360
ag1519
ag1520
atp3168
Rp3169
sg2919
g2
((lp3170
g2917
ag2918
ag2915
ag2919
atp3171
Rp3172
sg3131
g2
((lp3173
g3128
ag3130
ag3131
atp3174
Rp3175
sS'irwin'
p3176
g2
((lp3177
S'erwin'
p3178
ag3176
atp3179
Rp3180
sS'si'
p3181
g2
((lp3182
g1160
ag1161
aS'silas'
p3183
ag1163
ag1158
ag1164
ag3181
ag1166
atp3184
Rp3185
sS'billiewilhelm'
p3186
g2
((lp3187
S'william'
p3188
ag3186
aS'wilma'
p3189
atp3190
Rp3191
sS'marguerite'
p3192
g2
((lp3193
S'peggy'
p3194
ag3192
atp3195
Rp3196
sg2139
g2
((lp3197
g2140
ag2141
ag2195
ag2139
ag2137
ag2142
atp3198
Rp3199
sS'peregrine'
p3200
g2
((lp3201
S'perry'
p3202
ag3200
atp3203
Rp3204
sg397
g2
((lp3205
g1474
ag1475
ag1476
ag396
ag397
ag398
ag395
ag1471
ag1479
ag1480
ag399
ag393
atp3206
Rp3207
sS'serilla'
p3208
g2
((lp3209
S'rilla'
p3210
ag3208
atp3211
Rp3212
sS'tavia'
p3213
g2
((lp3214
g3213
aS'octavia'
p3215
aS'tave'
p3216
atp3217
Rp3218
sg2838
g2
((lp3219
S'nikki'
p3220
aS'nole'
p3221
ag2836
ag2838
aS'nicole'
p3222
atp3223
Rp3224
sg1396
g2
((lp3225
g1395
ag1393
ag1396
atp3226
Rp3227
sg856
g2
((lp3228
g847
ag849
ag851
ag1297
ag852
ag853
ag854
ag855
ag856
atp3229
Rp3230
sS'felicia'
p3231
g2
((lp3232
S'fel'
p3233
aS'felix'
p3234
ag3231
aS'feli'
p3235
atp3236
Rp3237
sg1668
g2
((lp3238
g1667
ag1665
ag1668
atp3239
Rp3240
sS'jim'
p3241
g2
((lp3242
S'jeb'
p3243
aS'james'
p3244
aS'jamie'
p3245
ag3241
atp3246
Rp3247
sg2371
g2
((lp3248
g2371
ag2369
atp3249
Rp3250
sg895
g2
((lp3251
g893
ag890
ag895
atp3252
Rp3253
sg1588
g2
((lp3254
g1583
ag1591
ag1588
ag1589
aS'agnes'
p3255
atp3256
Rp3257
sg1506
g2
((lp3258
g1504
ag1505
ag1506
ag1507
ag1508
ag1502
atp3259
Rp3260
sg2473
g2
((lp3261
g2469
ag2467
ag2470
ag2471
ag2472
ag2473
ag2474
atp3262
Rp3263
sS'nettie'
p3264
g2
((lp3265
g625
aS'jeanette'
p3266
ag292
ag626
ag630
aS'anthony'
p3267
ag2898
aS'monet'
p3268
aS'nattie'
p3269
aS'jeanne'
p3270
ag290
aS'natalie'
p3271
aS'antone'
p3272
ag628
aS'jannett'
p3273
aS'lunetta'
p3274
ag2110
aS'annette'
p3275
ag288
ag291
ag634
aS'anna'
p3276
ag3264
atp3277
Rp3278
sS'winifred'
p3279
g2
((lp3280
g3279
aS'freddie'
p3281
aS'winnet'
p3282
aS'winnie'
p3283
atp3284
Rp3285
sg292
g2
((lp3286
g290
ag288
ag291
ag292
ag293
atp3287
Rp3288
sg1466
g2
((lp3289
g1468
ag1466
ag1467
ag1464
atp3290
Rp3291
sg552
g2
((lp3292
g553
ag685
ag559
ag557
ag552
atp3293
Rp3294
sg2247
g2
((lp3295
g2247
ag2245
atp3296
Rp3297
sg1533
g2
((lp3298
g1533
ag1534
ag1531
ag1535
ag1536
atp3299
Rp3300
sg3244
g2
((lp3301
g3243
ag3244
ag3245
ag3241
atp3302
Rp3303
sg1040
g2
((lp3304
g1039
ag1025
ag1040
ag1037
ag1041
atp3305
Rp3306
sg435
g2
((lp3307
g429
ag431
ag432
ag433
ag434
ag435
ag436
atp3308
Rp3309
sg239
g2
((lp3310
g239
ag237
ag240
ag107
ag241
atp3311
Rp3312
sS'quillie'
p3313
g2
((lp3314
S'quil'
p3315
ag3313
aS'aquilla'
p3316
atp3317
Rp3318
sg96
g2
((lp3319
g95
ag96
ag97
ag93
ag98
ag99
ag100
ag101
ag102
ag103
ag104
atp3320
Rp3321
sg911
g2
((lp3322
g909
ag907
ag910
ag911
atp3323
Rp3324
sg271
g2
((lp3325
g269
ag270
ag267
ag271
ag272
ag273
ag274
ag275
ag276
ag277
ag278
ag279
ag280
ag281
ag282
ag283
ag284
ag285
atp3326
Rp3327
sg2609
g2
((lp3328
g2117
ag2609
ag2607
ag2610
atp3329
Rp3330
sg3102
g2
((lp3331
g3102
ag3100
ag3103
atp3332
Rp3333
sS'ev'
p3334
g2
((lp3335
g1967
ag1969
ag1971
aS'evangeline'
p3336
aS'evan'
p3337
ag3334
aS'vangie'
p3338
atp3339
Rp3340
sS'es'
p3341
g2
((lp3342
S'essy'
p3343
ag3341
atp3344
Rp3345
sg848
g2
((lp3346
g848
aS'jack'
p3347
atp3348
Rp3349
sS'sha'
p3350
g2
((lp3351
g3350
aS'sharon'
p3352
aS'shay'
p3353
aS'shaina'
p3354
atp3355
Rp3356
sg1367
g2
((lp3357
g1367
ag1365
ag1368
ag1369
ag1370
atp3358
Rp3359
sS'jemma'
p3360
g2
((lp3361
S'mima'
p3362
aS'jemima'
p3363
aS'mimi'
p3364
ag3360
atp3365
Rp3366
sg3336
g2
((lp3367
g3336
ag3334
ag3337
ag3338
atp3368
Rp3369
sS'dutch'
p3370
g2
((lp3371
S'harman'
p3372
aS'herman'
p3373
ag3370
atp3374
Rp3375
sg1674
g2
((lp3376
S'clarissa'
p3377
ag1674
ag1671
aS'clare'
p3378
aS'clara'
p3379
ag1675
ag1676
atp3380
Rp3381
sS'ples'
p3382
g2
((lp3383
S'pleasant'
p3384
ag3382
atp3385
Rp3386
sg3037
g2
((lp3387
g3037
ag3034
ag3036
atp3388
Rp3389
sg3362
g2
((lp3390
g3362
ag3363
ag3364
ag3360
atp3391
Rp3392
sg134
g2
((lp3393
g132
ag134
atp3394
Rp3395
sS'carl'
p3396
g2
((lp3397
g2164
aS'carlton'
p3398
ag2167
ag3396
ag2162
ag2165
atp3399
Rp3400
sS'carm'
p3401
g2
((lp3402
S'carmon'
p3403
aS'charm'
p3404
aS'cammie'
p3405
ag3401
atp3406
Rp3407
sg3364
g2
((lp3408
g1566
ag3363
ag3360
ag3362
ag1565
ag3364
ag1562
atp3409
Rp3410
sg620
g2
((lp3411
g616
ag2385
ag619
ag2387
ag614
ag617
ag620
ag618
atp3412
Rp3413
sg383
g2
((lp3414
S'dora'
p3415
aS'izzy'
p3416
ag383
ag388
ag389
atp3417
Rp3418
sS'democrates'
p3419
g2
((lp3420
S'mock'
p3421
ag3419
atp3422
Rp3423
sS'estella'
p3424
g2
((lp3425
S'essy'
p3426
ag3424
aS'stella'
p3427
atp3428
Rp3429
sS'melly'
p3430
g2
((lp3431
g3430
aS'permelia'
p3432
aS'mellie'
p3433
aS'milly'
p3434
atp3435
Rp3436
sg67
g2
((lp3437
g66
ag67
ag64
atp3438
Rp3439
sg690
g2
((lp3440
g688
ag690
ag691
atp3441
Rp3442
sg751
g2
((lp3443
g750
ag748
ag751
atp3444
Rp3445
sS'arthusa'
p3446
g2
((lp3447
g3446
aS'thursa'
p3448
atp3449
Rp3450
sg2702
g2
((lp3451
S'laura'
p3452
ag2702
ag2703
ag2700
ag2701
atp3453
Rp3454
sg591
g2
((lp3455
g587
ag589
ag590
ag591
atp3456
Rp3457
sg2474
g2
((lp3458
g2469
ag2467
ag2470
ag2471
ag2472
ag2473
ag2474
atp3459
Rp3460
sS'tobias'
p3461
g2
((lp3462
S'tobe'
p3463
aS'bias'
p3464
aS'toby'
p3465
ag3461
atp3466
Rp3467
sS'zay'
p3468
g2
((lp3469
S'isaiah'
p3470
aS'zadie'
p3471
ag3468
atp3472
Rp3473
sg524
g2
((lp3474
g522
ag524
atp3475
Rp3476
sg3269
g2
((lp3477
S'nettie'
p3478
ag3269
ag3271
atp3479
Rp3480
sS'george'
p3481
g2
((lp3482
S'georgia'
p3483
aS'jorge'
p3484
ag3481
aS'georgiana'
p3485
atp3486
Rp3487
sg2801
g2
((lp3488
g2801
ag2799
ag2802
ag2803
atp3489
Rp3490
sg2882
g2
((lp3491
g2882
ag2883
ag2880
ag2884
atp3492
Rp3493
sg1285
g2
((lp3494
g1285
ag849
ag851
ag1297
ag852
ag853
ag1283
ag855
ag856
atp3495
Rp3496
sS'huldah'
p3497
g2
((lp3498
S'mahala'
p3499
aS'haley'
p3500
ag3497
atp3501
Rp3502
sg1435
g2
((lp3503
g1433
ag1434
ag1435
ag1431
ag1436
ag1437
ag1438
atp3504
Rp3505
sg806
g2
((lp3506
g803
ag804
ag805
ag801
ag806
atp3507
Rp3508
sg1123
g2
((lp3509
g1128
ag1127
ag1123
ag1124
ag694
ag697
ag1125
ag1121
atp3510
Rp3511
sS'lexa'
p3512
g2
((lp3513
S'alexandra'
p3514
ag3512
aS'xan'
p3515
atp3516
Rp3517
sS'almira'
p3518
g2
((lp3519
g3518
aS'myra'
p3520
atp3521
Rp3522
sg1872
g2
((lp3523
g1871
ag1872
ag1875
ag1886
ag1876
ag1874
atp3524
Rp3525
sg948
g2
((lp3526
g944
ag945
ag946
ag942
ag947
ag948
ag949
atp3527
Rp3528
sS'thad'
p3529
g2
((lp3530
S'tad'
p3531
aS'thaddeus'
p3532
ag3529
atp3533
Rp3534
sS'wat'
p3535
g2
((lp3536
g3535
aS'walter'
p3537
atp3538
Rp3539
sg1286
g2
((lp3540
S'john'
p3541
ag1286
aS'natty'
p3542
aS'nate'
p3543
ag1291
aS'tan'
p3544
ag1293
aS'nathaniel'
p3545
ag1288
atp3546
Rp3547
sg2546
g2
((lp3548
g2546
aS'bert'
p3549
atp3550
Rp3551
sg1004
g2
((lp3552
g1004
aS'alexis'
p3553
atp3554
Rp3555
sS'monteleon'
p3556
g2
((lp3557
g3556
aS'monte'
p3558
atp3559
Rp3560
sS'sophia'
p3561
g2
((lp3562
S'sophronia'
p3563
aS'frona'
p3564
ag3561
aS'fronia'
p3565
atp3566
Rp3567
sg1225
g2
((lp3568
g1225
ag2685
ag1226
ag247
ag2686
ag2682
aS'cordelia'
p3569
aS'cordy'
p3570
ag1223
ag244
ag2687
atp3571
Rp3572
sg1009
g2
((lp3573
g1007
ag1009
ag1010
atp3574
Rp3575
sg2517
g2
((lp3576
g2522
ag2516
ag2517
ag2518
ag2514
ag2521
ag2524
atp3577
Rp3578
sS'sal'
p3579
g2
((lp3580
g527
aS'salvador'
p3581
ag3579
ag530
ag531
ag532
ag1388
ag529
ag1387
ag1384
ag1389
ag534
ag1390
ag535
atp3582
Rp3583
sg1583
g2
((lp3584
g1592
ag1581
aS'annie'
p3585
ag1264
ag1583
ag1584
ag1588
ag1589
aS'anne'
p3586
ag1591
aS'dee'
p3587
aS'anna'
p3588
ag3255
atp3589
Rp3590
sS'bennie'
p3591
g2
((lp3592
S'benjamin'
p3593
aS'ben'
p3594
aS'jamie'
p3595
ag3591
aS'benjie'
p3596
atp3597
Rp3598
sS'nicey'
p3599
g2
((lp3600
S'vernisee'
p3601
ag3599
atp3602
Rp3603
sg253
g2
((lp3604
g253
ag254
ag255
ag251
ag256
atp3605
Rp3606
sg1072
g2
((lp3607
g1071
ag1067
ag1074
ag1077
ag1072
atp3608
Rp3609
sg892
g2
((lp3610
g892
ag2253
ag2254
ag894
aS'submit'
p3611
atp3612
Rp3613
sS'griselda'
p3614
g2
((lp3615
g3614
aS'grissel'
p3616
atp3617
Rp3618
sg2822
g2
((lp3619
g2821
ag2819
ag2822
atp3620
Rp3621
sg2618
g2
((lp3622
S'cassie'
p3623
ag2616
ag2614
ag2617
ag2615
ag2618
atp3624
Rp3625
sg3274
g2
((lp3626
g3274
aS'nettie'
p3627
atp3628
Rp3629
sg219
g2
((lp3630
g218
ag216
ag219
ag220
ag221
atp3631
Rp3632
sS'rosina'
p3633
g2
((lp3634
g3633
aS'sina'
p3635
atp3636
Rp3637
sg1069
g2
((lp3638
S'mandy'
p3639
ag1069
atp3640
Rp3641
sg52
g2
((lp3642
g50
ag52
atp3643
Rp3644
sS'roxie'
p3645
g2
((lp3646
S'rox'
p3647
aS'roxane'
p3648
ag3645
atp3649
Rp3650
sg1625
g2
((lp3651
g1624
aS'deedee'
p3652
ag1625
atp3653
Rp3654
sg2643
g2
((lp3655
g2641
ag2645
aS'tessie'
p3656
ag2642
aS'terry'
p3657
ag2643
ag2644
aS'tess'
p3658
atp3659
Rp3660
sg2325
g2
((lp3661
g269
ag270
ag267
ag282
ag271
ag272
ag273
ag274
ag275
ag2325
ag277
ag278
ag276
ag280
ag281
ag2326
ag2323
ag283
ag284
ag285
atp3662
Rp3663
sS'michelle'
p3664
g2
((lp3665
S'mickey'
p3666
ag3664
aS'shelly'
p3667
atp3668
Rp3669
sg325
g2
((lp3670
g321
ag323
ag324
ag325
ag326
ag327
atp3671
Rp3672
sg2192
g2
((lp3673
g2189
ag2190
ag2191
ag2187
ag2192
atp3674
Rp3675
sg1128
g2
((lp3676
g1128
ag1127
ag1123
ag1124
ag1125
ag1121
atp3677
Rp3678
sg1831
g2
((lp3679
g1830
ag1831
ag1832
ag1828
atp3680
Rp3681
sS'boetius'
p3682
g2
((lp3683
g3682
aS'bo'
p3684
atp3685
Rp3686
sg3156
g2
((lp3687
g3154
ag3156
atp3688
Rp3689
sg3122
g2
((lp3690
g3121
ag3122
ag3119
atp3691
Rp3692
sS'perce'
p3693
g2
((lp3694
S'percy'
p3695
aS'percival'
p3696
ag3693
atp3697
Rp3698
sg3695
g2
((lp3699
g3695
ag3696
ag3693
atp3700
Rp3701
sg1267
g2
((lp3702
g1267
ag1260
atp3703
Rp3704
sS'posthuma'
p3705
g2
((lp3706
g3705
aS'humey'
p3707
atp3708
Rp3709
sg166
g2
((lp3710
g165
ag166
ag163
atp3711
Rp3712
sg893
g2
((lp3713
g892
ag890
ag893
ag894
ag895
atp3714
Rp3715
sg981
g2
((lp3716
g1531
ag981
aS'zadock'
p3717
aS'melchizedek'
p3718
ag1536
ag979
ag1533
ag1535
atp3719
Rp3720
sg1356
g2
((lp3721
g1345
ag1346
ag1347
aS'miriam'
p3722
ag1348
ag1349
ag1350
ag1351
ag1352
ag1353
ag1343
ag1354
ag1356
ag1357
ag1360
ag1361
ag1362
atp3723
Rp3724
sS'otis'
p3725
g2
((lp3726
g3725
aS'ode'
p3727
aS'ote'
p3728
atp3729
Rp3730
sg1209
g2
((lp3731
g1201
ag1203
ag1206
ag1207
ag1209
ag1205
ag1204
atp3732
Rp3733
sS'dicy'
p3734
g2
((lp3735
g3734
aS'laodicia'
p3736
aS'cenia'
p3737
atp3738
Rp3739
sg89
g2
((lp3740
g84
ag85
ag86
ag1000
ag82
ag996
ag998
ag88
ag89
ag90
atp3741
Rp3742
sg551
g2
((lp3743
S'eileen'
p3744
ag189
ag549
ag190
ag551
ag554
ag193
ag546
ag194
aS'ellen'
p3745
aS'helen'
p3746
ag197
atp3747
Rp3748
sS'nels'
p3749
g2
((lp3750
g3749
aS'nelson'
p3751
atp3752
Rp3753
sS'gee'
p3754
g2
((lp3755
S'jehu'
p3756
aS'hugh'
p3757
ag3754
atp3758
Rp3759
sS'yvonne'
p3760
g2
((lp3761
S'vonna'
p3762
ag3760
atp3763
Rp3764
sS'stacia'
p3765
g2
((lp3766
g3765
aS'eustacia'
p3767
aS'stacy'
p3768
atp3769
Rp3770
sg1499
g2
((lp3771
g3142
ag1498
ag3140
ag3143
ag1496
ag3145
ag1499
ag3144
ag3147
ag3148
atp3772
Rp3773
sg2218
g2
((lp3774
g2218
ag2219
ag2216
atp3775
Rp3776
sg2981
g2
((lp3777
g219
ag221
ag220
ag216
ag2981
ag2980
ag2978
atp3778
Rp3779
sg1077
g2
((lp3780
g1071
ag1067
ag1074
ag1077
ag1072
atp3781
Rp3782
sS'caswell'
p3783
g2
((lp3784
g3783
aS'cass'
p3785
atp3786
Rp3787
sg1475
g2
((lp3788
g1474
ag1475
ag1476
ag1477
ag1478
ag1471
ag1479
ag1480
atp3789
Rp3790
sg3143
g2
((lp3791
g3142
ag3140
ag3143
ag3144
ag3145
ag3146
ag3147
ag3148
atp3792
Rp3793
sg1874
g2
((lp3794
g1871
ag1872
ag1875
ag1886
ag1876
ag1874
atp3795
Rp3796
sg864
g2
((lp3797
g864
ag862
atp3798
Rp3799
sg502
g2
((lp3800
g501
ag502
ag503
ag504
ag505
ag499
atp3801
Rp3802
sg2614
g2
((lp3803
g3623
ag2616
ag2614
ag2617
ag2615
ag2618
atp3804
Rp3805
sg642
g2
((lp3806
g641
ag642
ag806
ag643
ag1927
ag1924
ag804
ag805
ag801
atp3807
Rp3808
sg3405
g2
((lp3809
g3403
ag3404
ag3405
ag3401
atp3810
Rp3811
sS'joy'
p3812
g2
((lp3813
g3812
aS'joyce'
p3814
atp3815
Rp3816
sg3545
g2
((lp3817
S'nathan'
p3818
aS'nat'
p3819
ag3544
aS'jonathan'
p3820
ag3545
ag3543
ag3542
atp3821
Rp3822
sS'alzada'
p3823
g2
((lp3824
S'zada'
p3825
ag3823
atp3826
Rp3827
sg2698
g2
((lp3828
g2696
ag2698
ag2699
atp3829
Rp3830
sg1231
g2
((lp3831
g1231
ag1232
ag1229
ag1233
atp3832
Rp3833
sg232
g2
((lp3834
g233
ag231
ag952
ag229
ag232
ag234
atp3835
Rp3836
sg1348
g2
((lp3837
g1345
ag1346
ag1347
ag1348
ag1349
ag1350
ag1351
ag1352
ag1353
ag1343
ag1354
ag1356
ag1357
ag1360
ag1361
ag1362
atp3838
Rp3839
sg3108
g2
((lp3840
g3106
ag3108
atp3841
Rp3842
sS'mona'
p3843
g2
((lp3844
S'ramona'
p3845
ag3843
atp3846
Rp3847
sg1019
g2
((lp3848
g1016
ag1018
ag1019
atp3849
Rp3850
sg836
g2
((lp3851
g2882
ag833
ag835
ag2884
ag2880
ag836
atp3852
Rp3853
sg411
g2
((lp3854
g409
ag431
ag411
ag412
ag434
ag413
ag429
ag435
atp3855
Rp3856
sS'duty'
p3857
g2
((lp3858
g3857
aS'deuteronomy'
p3859
atp3860
Rp3861
sS'lecurgus'
p3862
g2
((lp3863
S'curg'
p3864
ag3862
atp3865
Rp3866
sS'zaddi'
p3867
g2
((lp3868
S'arzada'
p3869
ag3867
atp3870
Rp3871
sg2455
g2
((lp3872
g2455
ag2456
ag2451
ag2453
ag2454
atp3873
Rp3874
sg3222
g2
((lp3875
g3221
aS'cole'
p3876
ag3220
ag3222
atp3877
Rp3878
sg3001
g2
((lp3879
g3001
ag3002
aS'olive'
p3880
ag3003
aS'ollie'
p3881
atp3882
Rp3883
sg2167
g2
((lp3884
g2164
ag2165
ag2166
ag2167
ag2162
atp3885
Rp3886
sg2239
g2
((lp3887
S'hal'
p3888
ag2242
ag2239
atp3889
Rp3890
sg3859
g2
((lp3891
g3857
ag3859
atp3892
Rp3893
sg1070
g2
((lp3894
g1073
ag2652
ag1070
ag1076
ag1075
atp3895
Rp3896
sS'mark'
p3897
g2
((lp3898
S'marcus'
p3899
ag3897
aS'marcia'
p3900
atp3901
Rp3902
sg3570
g2
((lp3903
g3570
aS'delia'
p3904
aS'corey'
p3905
ag2415
ag2417
ag3569
ag2413
atp3906
Rp3907
sg1232
g2
((lp3908
g1231
ag1232
ag1229
ag1233
atp3909
Rp3910
sg1493
g2
((lp3911
g1345
ag1346
ag1347
ag1488
ag3722
ag1348
ag1525
ag1350
ag1491
ag1526
aS'marilyn'
p3912
ag1523
ag1527
ag1343
aS'marcie'
p3913
ag1490
ag1354
ag1492
ag1356
ag1357
aS'marsha'
p3914
ag2712
ag1519
ag1493
atp3915
Rp3916
sg1268
g2
((lp3917
g1270
ag1262
ag1576
ag1271
ag1268
atp3918
Rp3919
sg1248
g2
((lp3920
g1248
ag1249
ag1246
atp3921
Rp3922
sg2522
g2
((lp3923
g2522
ag2516
ag2517
ag2518
ag2514
ag2521
ag2524
atp3924
Rp3925
sg406
g2
((lp3926
g405
ag406
ag361
ag364
ag366
ag402
ag404
atp3927
Rp3928
sg2310
g2
((lp3929
g2313
ag421
ag2308
ag424
ag425
ag2312
ag426
ag2310
ag2311
atp3930
Rp3931
sg404
g2
((lp3932
g405
ag406
ag361
ag364
ag366
ag402
ag404
atp3933
Rp3934
sS'elvie'
p3935
g2
((lp3936
g3935
aS'elvira'
p3937
atp3938
Rp3939
sg1345
g2
((lp3940
g1345
ag1346
ag1347
ag1348
ag1349
ag1350
aS'paul'
p3941
ag1351
ag1352
ag1353
ag1343
ag1354
aS'pauline'
p3942
ag1356
ag1357
ag1360
ag1361
ag1362
aS'paula'
p3943
atp3944
Rp3945
sg766
g2
((lp3946
S'sabra'
p3947
aS'tibbie'
p3948
ag766
aS'elizabeth'
p3949
aS'nib'
p3950
aS'belle'
p3951
aS'bella'
p3952
aS'sabe'
p3953
aS'ib'
p3954
aS'issy'
p3955
aS'cybilla'
p3956
aS'sibella'
p3957
atp3958
Rp3959
sg768
g2
((lp3960
g760
ag761
ag767
ag798
ag768
ag765
ag762
ag764
ag770
ag759
ag771
ag772
atp3961
Rp3962
sg2471
g2
((lp3963
g2469
ag2467
ag2470
ag2471
ag2472
ag2473
ag2474
atp3964
Rp3965
sS'arnold'
p3966
g2
((lp3967
S'arnie'
p3968
ag3966
atp3969
Rp3970
sg3601
g2
((lp3971
g3601
ag3599
atp3972
Rp3973
sg395
g2
((lp3974
g395
ag179
ag396
ag177
ag175
ag397
ag398
ag399
ag393
atp3975
Rp3976
sg2470
g2
((lp3977
g2469
ag2467
ag2470
ag2471
ag2472
ag2473
ag2474
atp3978
Rp3979
sg2280
g2
((lp3980
S'madge'
p3981
ag2281
aS'marge'
p3982
ag2280
atp3983
Rp3984
sg2415
g2
((lp3985
g2416
ag3905
ag2415
ag2413
ag2417
atp3986
Rp3987
sg1160
g2
((lp3988
g1160
ag1161
ag1163
ag1158
ag1164
ag1165
ag1166
atp3989
Rp3990
sg1479
g2
((lp3991
g1473
ag1474
ag1475
ag1476
ag1477
ag1478
ag1471
ag1479
ag1480
atp3992
Rp3993
sS'iva'
p3994
g2
((lp3995
g3994
aS'ivy'
p3996
atp3997
Rp3998
sS'candace'
p3999
g2
((lp4000
g3999
aS'candy'
p4001
aS'dacey'
p4002
atp4003
Rp4004
sg3464
g2
((lp4005
g3463
ag3464
ag3465
ag3461
atp4006
Rp4007
sg3996
g2
((lp4008
g3994
ag3996
atp4009
Rp4010
sg510
g2
((lp4011
g1750
aS'tricia'
p4012
aS'trish'
p4013
ag510
ag1757
aS'patrick'
p4014
aS'patricia'
p4015
aS'patsy'
p4016
aS'trixie'
p4017
ag508
ag1754
ag511
atp4018
Rp4019
sS'doctor'
p4020
g2
((lp4021
S'namegivento'
p4022
ag4020
atp4023
Rp4024
sS'edwin'
p4025
g2
((lp4026
S'edwina'
p4027
ag4025
atp4028
Rp4029
sg2159
g2
((lp4030
g2158
ag2159
ag2156
atp4031
Rp4032
sg1410
g2
((lp4033
g2597
ag2598
ag1408
ag1409
ag1410
ag1411
ag1412
ag1405
ag1414
atp4034
Rp4035
sg3869
g2
((lp4036
g3869
ag3867
atp4037
Rp4038
sS'pam'
p4039
g2
((lp4040
S'pamela'
p4041
ag4039
atp4042
Rp4043
sS'jeffrey'
p4044
g2
((lp4045
g4044
aS'jeff'
p4046
atp4047
Rp4048
sS'josetta'
p4049
g2
((lp4050
g4049
aS'jettie'
p4051
atp4052
Rp4053
sg1626
g2
((lp4054
g1622
ag1626
atp4055
Rp4056
sg1127
g2
((lp4057
g1128
ag1127
ag1123
ag1124
ag694
ag697
ag1125
ag1121
atp4058
Rp4059
sg961
g2
((lp4060
g959
ag960
ag961
ag962
ag963
ag957
atp4061
Rp4062
sg1689
g2
((lp4063
g1686
ag2273
ag1684
ag1689
atp4064
Rp4065
sg601
g2
((lp4066
g601
ag602
ag599
ag603
ag604
ag605
atp4067
Rp4068
sg3268
g2
((lp4069
g3268
aS'nettie'
p4070
atp4071
Rp4072
sS'frankie'
p4073
g2
((lp4074
S'sis'
p4075
ag4073
aS'frances'
p4076
aS'franie'
p4077
aS'france'
p4078
aS'fan'
p4079
aS'fran'
p4080
aS'franz'
p4081
aS'francis'
p4082
aS'fanny'
p4083
atp4084
Rp4085
sg2496
g2
((lp4086
g2494
ag2496
atp4087
Rp4088
sg3465
g2
((lp4089
g3463
ag3464
ag3465
ag3461
atp4090
Rp4091
sg3463
g2
((lp4092
g3463
ag3464
ag3465
ag3461
atp4093
Rp4094
sg3648
g2
((lp4095
g3647
ag3648
ag3645
atp4096
Rp4097
sg2038
g2
((lp4098
g2036
ag2038
ag2039
atp4099
Rp4100
sS'bedney'
p4101
g2
((lp4102
S'abednego'
p4103
ag4101
atp4104
Rp4105
sS'sheldon'
p4106
g2
((lp4107
S'shelly'
p4108
ag4106
atp4109
Rp4110
sS'ross'
p4111
g2
((lp4112
S'roscoe'
p4113
ag4111
atp4114
Rp4115
sg160
g2
((lp4116
g158
ag160
atp4117
Rp4118
sg3899
g2
((lp4119
g3899
ag3897
ag3900
atp4120
Rp4121
sg2190
g2
((lp4122
g2189
ag2190
ag2191
ag2187
ag2192
atp4123
Rp4124
sS'tensey'
p4125
g2
((lp4126
S'hortense'
p4127
aS'harty'
p4128
ag4125
atp4129
Rp4130
sg1142
g2
((lp4131
g1141
ag1142
ag1143
ag1144
ag1423
ag1146
ag1149
ag1148
atp4132
Rp4133
sg1071
g2
((lp4134
g340
ag338
ag1067
ag1071
ag1072
ag1074
ag343
ag352
ag1077
ag344
atp4135
Rp4136
sg1126
g2
((lp4137
g1126
ag1130
aS'ferdie'
p4138
aS'fred'
p4139
atp4140
Rp4141
sg374
g2
((lp4142
g371
ag372
ag373
ag369
ag374
ag375
atp4143
Rp4144
sg2265
g2
((lp4145
g824
ag2264
ag2265
ag2262
ag822
ag827
ag2266
ag828
ag829
ag825
atp4146
Rp4147
sg4014
g2
((lp4148
g1750
ag4012
ag4013
aS'pat'
p4149
ag1757
ag4014
ag4015
ag4016
ag4017
ag1754
aS'patty'
p4150
atp4151
Rp4152
sg2523
g2
((lp4153
S'jane'
p4154
ag2523
atp4155
Rp4156
sg1723
g2
((lp4157
S'vina'
p4158
aS'vonnie'
p4159
aS'wyncha'
p4160
ag1723
aS'viney'
p4161
atp4162
Rp4163
sg1891
g2
((lp4164
g1889
ag1891
ag1892
atp4165
Rp4166
sg1109
g2
((lp4167
g1105
ag1109
atp4168
Rp4169
sS'beverly'
p4170
g2
((lp4171
g4170
aS'bev'
p4172
atp4173
Rp4174
sg3338
g2
((lp4175
g3336
ag3334
ag3337
ag3338
atp4176
Rp4177
sS'lucy'
p4178
g2
((lp4179
g2397
aS'cindy'
p4180
ag442
ag2399
ag2395
aS'lucius'
p4181
ag4178
aS'lucia'
p4182
atp4183
Rp4184
sS'britt'
p4185
g2
((lp4186
g4185
aS'brittany'
p4187
atp4188
Rp4189
sg829
g2
((lp4190
g824
ag825
ag826
ag822
ag1289
ag827
ag828
ag1294
ag1704
ag829
ag1296
ag830
atp4191
Rp4192
sg3216
g2
((lp4193
g3213
ag3215
ag3216
atp4194
Rp4195
sg2229
g2
((lp4196
g2230
ag2231
aS'eli'
p4197
ag2229
atp4198
Rp4199
sS'exie'
p4200
g2
((lp4201
g4200
aS'experience'
p4202
atp4203
Rp4204
sS'willis'
p4205
g2
((lp4206
S'willy'
p4207
ag4205
aS'bill'
p4208
atp4209
Rp4210
sg220
g2
((lp4211
g218
ag216
ag219
ag220
ag221
atp4212
Rp4213
sg503
g2
((lp4214
g501
ag502
ag503
ag504
ag505
ag499
atp4215
Rp4216
sg2140
g2
((lp4217
g2139
ag2140
ag2141
ag2137
ag2142
atp4218
Rp4219
sS'ellie'
p4220
g2
((lp4221
S'alexandria'
p4222
aS'alla'
p4223
aS'elic'
p4224
aS'eleanor'
p4225
ag4220
aS'danielle'
p4226
aS'luella'
p4227
aS'dani'
p4228
aS'helen'
p4229
aS'gabriella'
p4230
atp4231
Rp4232
sg1485
g2
((lp4233
g1485
ag1483
atp4234
Rp4235
sg149
g2
((lp4236
S'will'
p4237
ag1405
ag2597
aS'wilda'
p4238
aS'bill'
p4239
ag2598
ag150
ag1409
ag1410
ag147
ag1412
ag1411
ag1408
ag149
aS'bud'
p4240
atp4241
Rp4242
sS'vivian'
p4243
g2
((lp4244
S'vi'
p4245
aS'viv'
p4246
ag4243
atp4247
Rp4248
sg4082
g2
((lp4249
g4075
ag4073
ag4076
ag4077
aS'frank'
p4250
ag4078
ag4079
ag4080
ag4081
ag4082
ag4083
atp4251
Rp4252
sg1041
g2
((lp4253
g269
ag270
ag1039
ag1025
ag267
ag1037
aS'eudicy'
p4254
ag271
ag272
ag273
ag274
ag275
ag276
ag277
ag1041
ag279
aS'eurydice'
p4255
aS'edith'
p4256
ag1040
ag281
ag282
ag280
ag928
ag283
ag284
ag285
atp4257
Rp4258
sS'buren'
p4259
g2
((lp4260
S'vanburen'
p4261
ag4259
atp4262
Rp4263
sg2631
g2
((lp4264
g2631
ag2629
atp4265
Rp4266
sg4187
g2
((lp4267
g4185
ag4187
atp4268
Rp4269
sS'gregory'
p4270
g2
((lp4271
g4270
aS'greg'
p4272
atp4273
Rp4274
sg1519
g2
((lp4275
g1345
ag1346
ag1347
ag1348
ag1525
ag1350
ag1526
ag1517
ag1518
ag1343
ag1354
ag1356
ag1357
ag1360
ag1519
ag1520
atp4276
Rp4277
sg3767
g2
((lp4278
g3765
ag3767
ag3768
atp4279
Rp4280
sS'clarice'
p4281
g2
((lp4282
S'clarissa'
p4283
aS'claire'
p4284
aS'clara'
p4285
ag4281
atp4286
Rp4287
sg3235
g2
((lp4288
g3233
ag3234
ag3231
ag3235
atp4289
Rp4290
sg6
g2
((lp4291
g1
ag538
ag14
ag4
ag541
ag5
ag6
ag7
ag8
ag9
ag543
ag10
ag11
atp4292
Rp4293
sS'penelope'
p4294
g2
((lp4295
g4294
aS'penny'
p4296
aS'neppie'
p4297
atp4298
Rp4299
sg2281
g2
((lp4300
g3981
ag2281
ag3982
ag2280
atp4301
Rp4302
sS'jasper'
p4303
g2
((lp4304
S'jap'
p4305
ag4303
aS'casper'
p4306
atp4307
Rp4308
sg3121
g2
((lp4309
g3121
ag3122
ag3119
atp4310
Rp4311
sg3145
g2
((lp4312
g3142
ag3140
ag3143
ag3144
ag3145
ag3146
ag3147
ag3148
atp4313
Rp4314
sg2788
g2
((lp4315
g1
ag14
ag2788
ag2789
ag2790
ag2786
ag2791
ag9
ag6
ag2792
ag11
atp4316
Rp4317
sg348
g2
((lp4318
g349
ag350
ag346
ag342
ag1789
ag348
ag353
atp4319
Rp4320
sg3667
g2
((lp4321
g3666
ag3664
ag3667
ag4106
atp4322
Rp4323
sS'hez'
p4324
g2
((lp4325
S'hezekiah'
p4326
aS'ki'
p4327
aS'ky'
p4328
ag4324
atp4329
Rp4330
sg3727
g2
((lp4331
g3725
ag3727
ag3728
atp4332
Rp4333
sg349
g2
((lp4334
g349
ag350
ag346
ag342
ag1789
ag348
ag353
atp4335
Rp4336
sg1196
g2
((lp4337
g2861
ag1198
ag1195
ag1636
ag1632
ag2860
ag1197
ag1196
ag1634
ag1193
atp4338
Rp4339
sg633
g2
((lp4340
g2237
ag629
ag2240
ag632
ag633
ag2111
atp4341
Rp4342
sg139
g2
((lp4343
g139
ag140
ag137
ag141
ag142
ag143
ag144
atp4344
Rp4345
sS'hoda'
p4346
g2
((lp4347
S'jahoda'
p4348
ag4346
aS'hodie'
p4349
aS'hody'
p4350
atp4351
Rp4352
sg1164
g2
((lp4353
g1160
ag1161
ag1163
ag1158
ag1164
ag1165
ag1166
atp4354
Rp4355
sS'montesque'
p4356
g2
((lp4357
g4356
aS'monty'
p4358
atp4359
Rp4360
sg2022
g2
((lp4361
g2022
aS'della'
p4362
atp4363
Rp4364
sg4350
g2
((lp4365
g4348
ag4346
ag4349
ag4350
atp4366
Rp4367
sg1724
g2
((lp4368
S'vina'
p4369
ag1724
aS'wyncha'
p4370
aS'viney'
p4371
aS'vonnie'
p4372
atp4373
Rp4374
sS'salome'
p4375
g2
((lp4376
g4375
aS'loomie'
p4377
atp4378
Rp4379
sg1821
g2
((lp4380
g1821
ag1819
ag1822
atp4381
Rp4382
sS'mellony'
p4383
g2
((lp4384
g4383
aS'mellia'
p4385
atp4386
Rp4387
sS'manuel'
p4388
g2
((lp4389
S'emanuel'
p4390
aS'immanuel'
p4391
aS'manny'
p4392
ag4388
aS'emmanuel'
p4393
atp4394
Rp4395
sg2949
g2
((lp4396
g2949
ag2947
atp4397
Rp4398
sS'jerita'
p4399
g2
((lp4400
g4399
aS'rita'
p4401
atp4402
Rp4403
sg2969
g2
((lp4404
g2969
aS'app'
p4405
aS'abigail'
p4406
aS'abner'
p4407
aS'abbie'
p4408
aS'gail'
p4409
ag2967
aS'absalom'
p4410
aS'abby'
p4411
ag2970
atp4412
Rp4413
sg2869
g2
((lp4414
g2869
ag2867
atp4415
Rp4416
sg1582
g2
((lp4417
g1590
ag1587
ag1585
ag1582
ag1579
atp4418
Rp4419
sg3234
g2
((lp4420
g3233
ag3234
ag3231
ag3235
atp4421
Rp4422
sS'al'
p4423
g2
((lp4424
S'bert'
p4425
ag1123
ag2987
ag1124
ag1305
aS'albert'
p4426
ag4423
ag1121
aS'alanson'
p4427
aS'lanson'
p4428
ag1319
ag499
ag502
ag504
ag503
ag501
ag1127
ag1307
ag1128
ag1320
ag1308
atp4429
Rp4430
sg2231
g2
((lp4431
g2230
ag2231
ag4197
ag2229
atp4432
Rp4433
sg2256
g2
((lp4434
S'hetty'
p4435
ag2256
ag2255
atp4436
Rp4437
sg2318
g2
((lp4438
g2318
ag2319
ag2316
ag2320
atp4439
Rp4440
sg2252
g2
((lp4441
g2250
ag2252
atp4442
Rp4443
sg733
g2
((lp4444
g733
ag731
ag734
ag735
atp4445
Rp4446
sg1154
g2
((lp4447
g1154
ag1155
ag1152
atp4448
Rp4449
sg1757
g2
((lp4450
g1750
ag1752
ag1753
ag1754
ag1755
ag1756
ag1757
atp4451
Rp4452
sg1844
g2
((lp4453
g1842
ag1844
atp4454
Rp4455
sg3722
g2
((lp4456
S'mitzi'
p4457
ag3722
aS'mary'
p4458
atp4459
Rp4460
sS'brandy'
p4461
g2
((lp4462
g4461
aS'brenda'
p4463
atp4464
Rp4465
sg3913
g2
((lp4466
g3913
ag3914
aS'mary'
p4467
atp4468
Rp4469
sg2301
g2
((lp4470
g2300
ag2301
ag2302
ag2303
ag2298
ag2304
atp4471
Rp4472
sg1697
g2
((lp4473
g1925
ag1694
ag1926
aS'kris'
p4474
ag2571
aS'kristopher'
p4475
ag1920
ag1695
ag1696
ag2570
ag1692
aS'tina'
p4476
ag1921
ag1697
ag1923
ag2572
ag2567
aS'ina'
p4477
atp4478
Rp4479
sg2191
g2
((lp4480
g2189
ag2190
ag2191
ag2187
ag2192
atp4481
Rp4482
sS'trannie'
p4483
g2
((lp4484
g4483
aS'tranquilla'
p4485
aS'quilla'
p4486
atp4487
Rp4488
sg3271
g2
((lp4489
g3478
ag3269
ag3271
atp4490
Rp4491
sg1721
g2
((lp4492
g1720
ag1721
ag1722
ag1718
ag1723
ag1724
ag1725
atp4493
Rp4494
sg208
g2
((lp4495
g206
ag208
atp4496
Rp4497
sS'raphael'
p4498
g2
((lp4499
g4498
aS'raff'
p4500
atp4501
Rp4502
sg3905
g2
((lp4503
S'coco'
p4504
aS'cordy'
p4505
ag3905
aS'ree'
p4506
atp4507
Rp4508
sg3751
g2
((lp4509
g3749
ag3751
atp4510
Rp4511
sg2172
g2
((lp4512
g2433
ag2173
ag2431
ag2170
ag2437
ag2436
ag2174
ag2172
atp4513
Rp4514
sg1550
g2
((lp4515
S'bert'
p4516
ag1548
ag2542
ag1549
ag1546
ag1550
ag1551
ag1552
ag2540
ag1553
ag1554
ag1555
atp4517
Rp4518
sg3558
g2
((lp4519
g3556
ag3558
atp4520
Rp4521
sS'ali'
p4522
g2
((lp4523
S'alazama'
p4524
aS'alison'
p4525
ag4522
atp4526
Rp4527
sg1124
g2
((lp4528
g1128
ag1127
ag1123
ag1124
ag1125
ag1121
atp4529
Rp4530
sg97
g2
((lp4531
g95
ag96
ag97
ag93
ag98
ag99
ag100
ag101
ag102
ag103
ag104
atp4532
Rp4533
sS'blanche'
p4534
g2
((lp4535
g4534
aS'bea'
p4536
atp4537
Rp4538
sS'cameron'
p4539
g2
((lp4540
g4539
aS'cam'
p4541
atp4542
Rp4543
sg4358
g2
((lp4544
g4356
aS'gum'
p4545
ag4358
aS'montgomery'
p4546
atp4547
Rp4548
sg344
g2
((lp4549
g340
ag1963
ag2588
ag338
ag1962
ag341
ag2103
ag1960
ag343
ag352
ag2104
ag2105
ag2106
ag344
atp4550
Rp4551
sg824
g2
((lp4552
g824
ag825
ag826
aS'jennet'
p4553
ag2061
ag822
ag2055
ag2059
ag827
ag828
ag2062
ag829
ag830
atp4554
Rp4555
sg270
g2
((lp4556
g269
ag270
ag267
ag271
ag272
ag273
ag274
ag275
ag276
ag277
ag278
ag279
ag280
ag281
ag282
ag283
ag284
ag285
atp4557
Rp4558
sg4391
g2
((lp4559
g4391
aS'manuel'
p4560
ag4393
atp4561
Rp4562
sg1249
g2
((lp4563
g1248
ag1249
ag1246
atp4564
Rp4565
sg2833
g2
((lp4566
g4012
ag2832
ag4149
ag2830
ag4014
ag2831
ag2833
ag4016
ag4015
ag4013
ag2828
ag4150
atp4567
Rp4568
sg2676
g2
((lp4569
g2676
ag2674
atp4570
Rp4571
sg4226
g2
((lp4572
S'ellie'
p4573
ag4226
ag4228
atp4574
Rp4575
sg2232
g2
((lp4576
g2227
ag2232
atp4577
Rp4578
sg1319
g2
((lp4579
g4425
ag4426
ag1316
ag948
ag945
ag1319
ag942
ag1320
ag949
atp4580
Rp4581
sg3563
g2
((lp4582
g3563
ag3564
ag3561
ag3565
atp4583
Rp4584
sg849
g2
((lp4585
g847
ag849
ag851
ag1297
ag852
ag853
ag854
ag855
ag856
atp4586
Rp4587
sg3103
g2
((lp4588
g3102
ag3100
ag3103
atp4589
Rp4590
sS'pheriba'
p4591
g2
((lp4592
S'pherbia'
p4593
ag4591
aS'ferbie'
p4594
atp4595
Rp4596
sg1408
g2
((lp4597
g2597
ag2598
ag1408
ag1409
ag1410
ag1411
ag1412
ag1405
ag1414
atp4598
Rp4599
sg4079
g2
((lp4600
g4075
ag4073
ag4076
ag4077
ag4078
ag4079
ag4080
ag4081
ag4082
ag4083
atp4601
Rp4602
sg1328
g2
((lp4603
g1328
aS'helen'
p4604
atp4605
Rp4606
sS'leonidas'
p4607
g2
((lp4608
g4607
aS'leon'
p4609
aS'lee'
p4610
atp4611
Rp4612
sg1390
g2
((lp4613
g1384
ag1386
ag1387
ag1388
ag1389
ag1390
atp4614
Rp4615
sg3647
g2
((lp4616
g3647
ag3648
ag3645
atp4617
Rp4618
sg1857
g2
((lp4619
g1856
ag1857
ag1858
ag2669
ag1859
ag1850
ag1882
ag1860
ag1861
ag1862
ag1879
ag1863
atp4620
Rp4621
sg1714
g2
((lp4622
g1712
ag1710
ag1713
ag1714
ag1715
atp4623
Rp4624
sg1195
g2
((lp4625
g2861
ag1198
ag1195
ag1636
ag1632
ag2860
ag1197
ag1196
ag1634
ag1193
atp4626
Rp4627
sg3272
g2
((lp4628
g3267
aS'antonia'
p4629
aS'nettie'
p4630
ag3272
atp4631
Rp4632
sg2230
g2
((lp4633
g2230
ag2231
ag4197
ag2229
atp4634
Rp4635
sg3471
g2
((lp4636
g3470
ag3471
ag3468
atp4637
Rp4638
sg2241
g2
((lp4639
g2237
ag2238
aS'horatio'
p4640
ag2235
ag177
ag2241
aS'horace'
p4641
ag178
ag623
ag632
ag175
ag633
atp4642
Rp4643
sg2302
g2
((lp4644
g346
aS'elysia'
p4645
ag1789
ag2303
ag348
ag2298
ag353
ag349
ag2300
ag2301
ag2302
aS'elisa'
p4646
ag2304
ag350
atp4647
Rp4648
sg804
g2
((lp4649
g803
ag804
ag805
ag801
ag806
atp4650
Rp4651
sg1208
g2
((lp4652
S'maggie'
p4653
aS'lena'
p4654
ag1208
atp4655
Rp4656
sS'flick'
p4657
g2
((lp4658
g4657
aS'felicity'
p4659
aS'tick'
p4660
atp4661
Rp4662
sg3593
g2
((lp4663
g3593
ag3594
ag3595
ag3591
ag3596
atp4664
Rp4665
sg240
g2
((lp4666
g262
ag261
ag239
ag237
ag240
ag107
ag241
ag264
ag259
atp4667
Rp4668
sg1436
g2
((lp4669
g1433
aS'neil'
p4670
ag1438
ag1434
ag1435
ag1431
ag1436
ag1437
atp4671
Rp4672
sg1166
g2
((lp4673
g1164
ag1160
ag1161
ag1166
ag1165
ag1158
atp4674
Rp4675
sg1474
g2
((lp4676
g1473
ag1474
ag1475
ag1476
ag1477
ag1478
ag1471
ag1479
ag1480
atp4677
Rp4678
sg2491
g2
((lp4679
g2491
ag1830
ag2489
ag1831
ag1828
atp4680
Rp4681
sg2173
g2
((lp4682
g2433
ag2173
ag2431
ag2170
ag2437
ag2436
ag2174
ag2172
atp4683
Rp4684
sg1508
g2
((lp4685
g1504
ag1505
ag1506
ag1507
ag1508
ag1502
atp4686
Rp4687
sg1805
g2
((lp4688
g1803
ag1804
ag1805
ag1801
ag1806
atp4689
Rp4690
sg1694
g2
((lp4691
g1694
ag1695
ag1696
ag1692
ag1697
atp4692
Rp4693
sg2616
g2
((lp4694
g3623
ag3783
ag2616
ag2614
ag2617
ag2615
ag2618
atp4695
Rp4696
sS'micajah'
p4697
g2
((lp4698
g4697
aS'cage'
p4699
atp4700
Rp4701
sg2642
g2
((lp4702
g2641
ag2645
ag3656
ag2642
ag3657
ag2643
ag2644
ag3658
atp4703
Rp4704
sg1921
g2
((lp4705
g1925
ag1926
ag1920
ag4476
ag1921
ag1922
ag1923
ag4477
atp4706
Rp4707
sS'barnabas'
p4708
g2
((lp4709
S'barney'
p4710
ag4708
atp4711
Rp4712
sg1871
g2
((lp4713
g1871
ag1872
ag1875
ag1886
ag1876
ag1874
atp4714
Rp4715
sg4485
g2
((lp4716
g4483
ag4485
ag4486
atp4717
Rp4718
sg2073
g2
((lp4719
g2073
ag2071
ag2074
ag2075
atp4720
Rp4721
sg3569
g2
((lp4722
g3570
ag3904
ag247
ag244
ag3569
atp4723
Rp4724
sg4202
g2
((lp4725
g4200
ag4202
atp4726
Rp4727
sg3427
g2
((lp4728
g3426
ag3424
ag3427
atp4729
Rp4730
sg128
g2
((lp4731
g127
ag128
ag129
ag125
atp4732
Rp4733
sg1587
g2
((lp4734
g1590
ag1587
ag1585
ag1582
ag1579
atp4735
Rp4736
sg1859
g2
((lp4737
g1856
ag1857
ag1858
ag1859
ag1850
ag1860
ag1861
ag1862
ag1863
atp4738
Rp4739
sS'raze'
p4740
g2
((lp4741
S'erasmus'
p4742
ag4740
aS'rasmus'
p4743
atp4744
Rp4745
sg3520
g2
((lp4746
g3518
ag3520
ag2814
atp4747
Rp4748
sg66
g2
((lp4749
g66
ag67
ag64
atp4750
Rp4751
sS'alexandria'
p4752
g2
((lp4753
S'drina'
p4754
ag4752
aS'alla'
p4755
ag4224
ag4220
aS'sandra'
p4756
aS'alexander'
p4757
atp4758
Rp4759
sS'vin'
p4760
g2
((lp4761
S'vincent'
p4762
aS'vinnie'
p4763
ag4760
aS'vince'
p4764
aS'vinny'
p4765
atp4766
Rp4767
sg234
g2
((lp4768
g231
ag232
ag229
ag233
ag234
atp4769
Rp4770
sg4246
g2
((lp4771
g4245
ag4246
ag4243
atp4772
Rp4773
sg605
g2
((lp4774
g601
ag602
ag599
ag603
ag604
ag605
atp4775
Rp4776
sS'clifford'
p4777
g2
((lp4778
g4777
aS'cliff'
p4779
aS'ford'
p4780
atp4781
Rp4782
sg4013
g2
((lp4783
g4012
ag4013
ag4149
ag4014
ag4015
ag4016
ag4017
ag4150
atp4784
Rp4785
sg1863
g2
((lp4786
g1856
ag1857
ag1858
ag1859
ag1850
ag1860
ag1861
ag1862
ag1863
atp4787
Rp4788
sg4500
g2
((lp4789
g4498
ag4500
atp4790
Rp4791
sS'mort'
p4792
g2
((lp4793
S'mortimer'
p4794
ag4792
atp4795
Rp4796
sg2352
g2
((lp4797
g2349
ag4246
ag2351
ag4243
ag2352
atp4798
Rp4799
sg3845
g2
((lp4800
g3845
ag3843
atp4801
Rp4802
sg2052
g2
((lp4803
g2050
ag1073
ag1076
ag2652
ag2052
ag1070
atp4804
Rp4805
sS'leonard'
p4806
g2
((lp4807
S'leona'
p4808
ag4806
aS'leon'
p4809
aS'leo'
p4810
atp4811
Rp4812
sS'floyd'
p4813
g2
((lp4814
g4813
aS'lloyd'
p4815
atp4816
Rp4817
sg1369
g2
((lp4818
g1367
ag1365
ag1368
ag1369
ag1370
atp4819
Rp4820
sg875
g2
((lp4821
g874
ag875
ag872
ag876
atp4822
Rp4823
sg3581
g2
((lp4824
g3581
ag3579
atp4825
Rp4826
sg4645
g2
((lp4827
S'lisa'
p4828
ag4645
atp4829
Rp4830
sg1162
g2
((lp4831
g1162
aS'sly'
p4832
aS'syl'
p4833
atp4834
Rp4835
sg1317
g2
((lp4836
g1314
ag125
ag1315
ag127
ag1312
ag128
ag1317
ag1318
atp4837
Rp4838
sg4475
g2
((lp4839
S'chris'
p4840
ag4475
ag4474
atp4841
Rp4842
sg1491
g2
((lp4843
g1490
ag1488
ag1491
ag1492
ag1493
atp4844
Rp4845
sg1804
g2
((lp4846
g1803
ag1804
ag1805
ag1801
ag1806
atp4847
Rp4848
sg1307
g2
((lp4849
g346
ag1789
ag1305
ag348
ag1309
ag349
ag350
ag342
ag1307
ag1308
atp4850
Rp4851
sg1830
g2
((lp4852
g1830
ag1831
ag1832
ag1828
atp4853
Rp4854
sg4780
g2
((lp4855
g4777
ag4779
ag4780
atp4856
Rp4857
sS'pony'
p4858
g2
((lp4859
S'nap'
p4860
ag4858
aS'napoleon'
p4861
aS'leon'
p4862
aS'poley'
p4863
atp4864
Rp4865
sg4407
g2
((lp4866
g4407
aS'ab'
p4867
aS'abbie'
p4868
aS'abby'
p4869
atp4870
Rp4871
sS'iona'
p4872
g2
((lp4873
g4872
aS'onnie'
p4874
atp4875
Rp4876
sS'armilda'
p4877
g2
((lp4878
S'milly'
p4879
ag4877
atp4880
Rp4881
sg213
g2
((lp4882
g213
ag211
atp4883
Rp4884
sS'court'
p4885
g2
((lp4886
S'curt'
p4887
ag4885
aS'corky'
p4888
aS'courtney'
p4889
atp4890
Rp4891
sg2538
g2
((lp4892
S'bert'
p4893
ag2538
ag2545
ag2539
atp4894
Rp4895
sg2545
g2
((lp4896
g4893
ag3754
ag2539
ag3756
ag2538
ag2545
atp4897
Rp4898
sg2032
g2
((lp4899
S'tillie'
p4900
ag2032
atp4901
Rp4902
sg570
g2
((lp4903
g564
ag565
ag566
ag567
ag568
ag569
ag570
ag562
atp4904
Rp4905
sg2433
g2
((lp4906
g2433
ag2434
ag2435
ag2436
ag2431
ag2437
atp4907
Rp4908
sg669
g2
((lp4909
g668
ag666
ag669
ag670
atp4910
Rp4911
sg1460
g2
((lp4912
g1458
ag1459
ag1460
ag1456
ag1461
atp4913
Rp4914
sg4593
g2
((lp4915
g4593
ag4591
ag4594
atp4916
Rp4917
sg1476
g2
((lp4918
g1474
ag1475
ag1476
ag1477
ag1478
ag1471
ag1479
ag1480
atp4919
Rp4920
sg2708
g2
((lp4921
g2708
ag2706
ag2709
atp4922
Rp4923
sg1648
g2
((lp4924
g1459
ag2440
ag1456
ag1650
ag1648
ag2443
ag1461
ag2445
ag1649
ag1646
ag2444
ag1460
atp4925
Rp4926
sg1615
g2
((lp4927
g1611
ag1612
ag1613
ag1614
ag1615
ag1616
ag1609
atp4928
Rp4929
sg4640
g2
((lp4930
g4640
ag4641
aS'harry'
p4931
atp4932
Rp4933
sg4393
g2
((lp4934
g4391
ag4560
ag4393
atp4935
Rp4936
sg1777
g2
((lp4937
g1777
ag1775
atp4938
Rp4939
sg2687
g2
((lp4940
g2684
ag2685
ag2682
ag2686
ag2687
atp4941
Rp4942
sS'leanne'
p4943
g2
((lp4944
g4943
aS'annie'
p4945
aS'lea'
p4946
atp4947
Rp4948
sg3470
g2
((lp4949
g3470
ag3471
ag3468
atp4950
Rp4951
sg1662
g2
((lp4952
g1661
ag1659
ag1662
atp4953
Rp4954
sg4755
g2
((lp4955
g4754
ag4752
ag4755
ag4224
ag4220
ag4756
ag4757
atp4956
Rp4957
sg155
g2
((lp4958
g155
ag153
atp4959
Rp4960
sg327
g2
((lp4961
g321
ag323
ag324
ag325
ag326
ag327
atp4962
Rp4963
sg241
g2
((lp4964
g239
ag237
ag240
ag241
atp4965
Rp4966
sS'isaac'
p4967
g2
((lp4968
g4967
aS'ike'
p4969
aS'zeke'
p4970
atp4971
Rp4972
sg634
g2
((lp4973
g625
ag626
ag630
ag628
ag3452
ag2110
ag2702
ag2703
ag634
ag635
atp4974
Rp4975
sS'ally'
p4976
g2
((lp4977
g1305
aS'alicia'
p4978
ag1307
ag4976
ag1309
atp4979
Rp4980
sg3002
g2
((lp4981
g3880
ag3003
ag3001
ag3002
atp4982
Rp4983
sg991
g2
((lp4984
g989
ag990
ag991
ag987
ag992
ag993
atp4985
Rp4986
sg1667
g2
((lp4987
g1667
ag1665
ag1668
atp4988
Rp4989
sS'bryan'
p4990
g2
((lp4991
S'brian'
p4992
aS'bryant'
p4993
ag4990
atp4994
Rp4995
sg2542
g2
((lp4996
g2542
ag4516
ag2544
ag2541
ag2540
atp4997
Rp4998
sg1332
g2
((lp4999
g3744
ag189
ag1325
ag191
ag190
ag2124
ag55
ag197
ag1330
ag192
ag1332
ag59
ag2123
ag1334
ag60
atp5000
Rp5001
sg4670
g2
((lp5002
S'neely'
p5003
aS'cornelius'
p5004
ag4670
aS'cornelia'
p5005
atp5006
Rp5007
sg904
g2
((lp5008
g903
ag904
ag901
atp5009
Rp5010
sg3500
g2
((lp5011
g3499
ag3500
ag3497
atp5012
Rp5013
sg4427
g2
((lp5014
g4427
ag4423
ag4428
atp5015
Rp5016
sg2556
g2
((lp5017
g2554
ag2556
ag2557
ag2558
atp5018
Rp5019
sg4545
g2
((lp5020
g4545
aS'monty'
p5021
ag4546
atp5022
Rp5023
sg2444
g2
((lp5024
g2442
ag2440
ag2443
ag2444
ag2445
atp5025
Rp5026
sg1263
g2
((lp5027
g1263
ag1269
ag1266
aS'dee'
p5028
atp5029
Rp5030
sg3202
g2
((lp5031
g3202
ag3200
atp5032
Rp5033
sg640
g2
((lp5034
S'earnest'
p5035
ag640
ag638
ag644
atp5036
Rp5037
sg3900
g2
((lp5038
g3899
ag3897
ag3900
atp5039
Rp5040
sS'daph'
p5041
g2
((lp5042
S'daphne'
p5043
ag5041
aS'daphie'
p5044
atp5045
Rp5046
sg4027
g2
((lp5047
g4027
ag4025
atp5048
Rp5049
sg1052
g2
((lp5050
g1052
ag1050
atp5051
Rp5052
sg1983
g2
((lp5053
g2020
aS'linney'
p5054
aS'aline'
p5055
ag2021
ag1983
ag1987
ag1988
ag1985
ag1989
atp5056
Rp5057
sS'dunk'
p5058
g2
((lp5059
g5058
aS'duncan'
p5060
atp5061
Rp5062
sg2086
g2
((lp5063
g2085
ag2086
aS'jerry'
p5064
atp5065
Rp5066
sg2699
g2
((lp5067
g564
ag2698
ag2699
ag566
ag2696
ag568
ag569
ag570
ag562
atp5068
Rp5069
sg2210
g2
((lp5070
g2206
ag2208
ag2209
ag2210
atp5071
Rp5072
sg3384
g2
((lp5073
g3384
ag3382
atp5074
Rp5075
sg2445
g2
((lp5076
g2442
ag2440
ag2443
ag2444
ag2445
atp5077
Rp5078
sg1713
g2
((lp5079
g1712
ag1710
ag1713
ag1714
ag1715
atp5080
Rp5081
sg1806
g2
((lp5082
g1803
ag1804
ag1805
ag1801
ag1806
atp5083
Rp5084
sg1163
g2
((lp5085
S'vester'
p5086
aS'vest'
p5087
aS'sly'
p5088
ag1163
aS'si'
p5089
aS'syl'
p5090
atp5091
Rp5092
sg456
g2
((lp5093
g456
ag454
ag457
atp5094
Rp5095
sg1725
g2
((lp5096
g1722
ag1720
ag1718
ag1721
ag1725
atp5097
Rp5098
sS'daisy'
p5099
g2
((lp5100
g305
ag303
ag306
ag307
ag308
ag309
aS'margaret'
p5101
ag311
ag312
ag313
ag314
ag315
ag5099
ag317
ag318
atp5102
Rp5103
sg2505
g2
((lp5104
g2141
ag2139
ag2137
ag2140
ag2502
ag2504
ag2505
atp5105
Rp5106
sg3737
g2
((lp5107
g3734
ag3736
ag3737
atp5108
Rp5109
sg431
g2
((lp5110
g429
ag431
ag432
ag433
ag434
ag435
ag436
atp5111
Rp5112
sg714
g2
((lp5113
g713
ag711
ag714
ag715
ag716
atp5114
Rp5115
sg2996
g2
((lp5116
g2996
ag2992
ag2994
ag2995
atp5117
Rp5118
sg2997
g2
((lp5119
S'felty'
p5120
aS'vallie'
p5121
aS'val'
p5122
ag2997
atp5123
Rp5124
sS'tanny'
p5125
g2
((lp5126
S'tanafra'
p5127
ag5125
atp5128
Rp5129
sg675
g2
((lp5130
g675
ag673
atp5131
Rp5132
sg1264
g2
((lp5133
g1264
ag1265
ag3587
atp5134
Rp5135
sg2659
g2
((lp5136
g2657
ag2655
ag2658
ag2659
ag2660
atp5137
Rp5138
sg3243
g2
((lp5139
g3243
ag3244
ag3245
ag3241
atp5140
Rp5141
sg2174
g2
((lp5142
g2172
ag2170
ag2173
ag2174
atp5143
Rp5144
sg4348
g2
((lp5145
g4348
ag4346
ag4349
ag4350
atp5146
Rp5147
sg1467
g2
((lp5148
g1468
ag1466
ag1467
ag1464
atp5149
Rp5150
sg2039
g2
((lp5151
g2036
ag2038
ag2039
atp5152
Rp5153
sg4002
g2
((lp5154
g3999
ag4001
ag4002
atp5155
Rp5156
sg3595
g2
((lp5157
g3593
ag3241
ag3591
ag3594
ag3244
ag3595
ag3243
ag3596
atp5158
Rp5159
sg4254
g2
((lp5160
g4254
aS'dicey'
p5161
atp5162
Rp5163
sg644
g2
((lp5164
g642
ag5035
ag643
ag640
ag638
ag644
ag641
atp5165
Rp5166
sg819
g2
((lp5167
g819
ag817
atp5168
Rp5169
sg2802
g2
((lp5170
g2801
ag2799
ag2802
ag2803
atp5171
Rp5172
sg1852
g2
((lp5173
g1852
ag2534
ag1855
ag1854
ag1853
atp5174
Rp5175
sg332
g2
((lp5176
g332
ag333
ag334
ag330
ag335
atp5177
Rp5178
sg3372
g2
((lp5179
g3372
ag3373
ag3370
atp5180
Rp5181
sg4272
g2
((lp5182
g4270
ag4272
atp5183
Rp5184
sg813
g2
((lp5185
g814
ag812
ag813
ag809
atp5186
Rp5187
sg4228
g2
((lp5188
g4573
ag4226
ag4228
atp5189
Rp5190
sg2980
g2
((lp5191
g2980
ag2981
ag2978
atp5192
Rp5193
sS'mickey'
p5194
g2
((lp5195
g5194
ag3664
aS'mike'
p5196
aS'mitchell'
p5197
aS'michael'
p5198
ag3667
atp5199
Rp5200
sg1000
g2
((lp5201
g1000
ag2736
ag704
ag705
ag706
ag996
ag707
ag2735
ag998
ag999
atp5202
Rp5203
sS'creasey'
p5204
g2
((lp5205
S'lucretia'
p5206
ag5204
atp5207
Rp5208
sg3036
g2
((lp5209
g3037
ag3034
ag3036
atp5210
Rp5211
sg140
g2
((lp5212
g139
ag140
ag137
ag987
ag991
ag142
ag992
ag993
ag144
atp5213
Rp5214
sg1855
g2
((lp5215
g1852
ag2534
ag1855
ag1854
ag1853
atp5216
Rp5217
sg375
g2
((lp5218
g371
ag372
ag373
ag369
ag374
ag375
atp5219
Rp5220
sg1613
g2
((lp5221
g4516
ag2541
ag2542
ag1614
ag2544
ag1609
ag1611
ag1612
ag1613
ag1615
ag1616
atp5222
Rp5223
sg284
g2
((lp5224
g269
ag270
ag267
ag271
ag272
ag273
ag274
ag275
ag276
ag277
ag278
ag279
ag280
ag281
ag282
ag283
ag284
ag285
atp5225
Rp5226
sg2331
g2
((lp5227
S'amos'
p5228
ag2331
aS'moses'
p5229
ag2332
atp5230
Rp5231
sg233
g2
((lp5232
g231
ag232
ag229
ag233
ag234
atp5233
Rp5234
sg1836
g2
((lp5235
S'rena'
p5236
ag1836
atp5237
Rp5238
sg743
g2
((lp5239
g740
ag745
ag2026
ag743
ag742
atp5240
Rp5241
sg3343
g2
((lp5242
g3343
ag3424
ag3341
ag3427
atp5243
Rp5244
sg1387
g2
((lp5245
g1384
ag1386
ag1387
ag1388
ag1389
ag1390
atp5246
Rp5247
sg38
g2
((lp5248
g3279
ag34
ag3283
ag35
ag36
ag37
ag38
ag3282
ag39
ag32
ag40
ag41
atp5249
Rp5250
sg4041
g2
((lp5251
g4041
ag4039
atp5252
Rp5253
sg3404
g2
((lp5254
g3403
ag3404
ag3405
ag3401
atp5255
Rp5256
sg2332
g2
((lp5257
g5228
ag2331
ag5229
ag2332
atp5258
Rp5259
sg98
g2
((lp5260
g4754
ag4752
ag96
ag97
ag2615
ag98
ag99
ag100
ag3623
ag2618
ag95
ag4755
ag2614
ag93
ag103
ag2616
aS'alexandra'
p5261
ag104
ag102
ag101
atp5262
Rp5263
sg5043
g2
((lp5264
g5043
ag5041
ag5044
atp5265
Rp5266
sg1861
g2
((lp5267
g1369
ag1370
ag1365
ag1134
ag1856
ag1367
ag1857
ag1858
ag1859
ag1850
ag1860
ag1861
ag1862
ag1863
atp5268
Rp5269
sg611
g2
((lp5270
S'mac'
p5271
aS'mc'
p5272
ag2554
ag611
ag2556
atp5273
Rp5274
sS'mavine'
p5275
g2
((lp5276
g5275
aS'mave'
p5277
atp5278
Rp5279
sg3403
g2
((lp5280
g3403
ag3404
ag3405
ag3401
atp5281
Rp5282
sS'cleat'
p5283
g2
((lp5284
g5283
aS'cleatus'
p5285
atp5286
Rp5287
sg4524
g2
((lp5288
g4524
ag4522
atp5289
Rp5290
sg202
g2
((lp5291
S'chet'
p5292
ag202
atp5293
Rp5294
sg4328
g2
((lp5295
g4326
ag4327
ag4328
ag4324
atp5296
Rp5297
sg3084
g2
((lp5298
g3083
ag3084
ag3081
ag3085
atp5299
Rp5300
sS'thomas'
p5301
g2
((lp5302
S'thom'
p5303
ag5301
aS'tom'
p5304
atp5305
Rp5306
sg4763
g2
((lp5307
g4762
ag4763
ag4760
ag4764
ag4765
atp5308
Rp5309
sg3499
g2
((lp5310
g3499
ag3500
ag3497
atp5311
Rp5312
sg4076
g2
((lp5313
g4075
ag4073
ag4076
ag4077
ag4250
ag4078
ag4079
ag4080
ag4081
ag4082
ag4083
atp5314
Rp5315
sS'phoebe'
p5316
g2
((lp5317
g867
aS'philipina'
p5318
ag5316
aS'penie'
p5319
atp5320
Rp5321
sg1712
g2
((lp5322
g1712
ag1710
ag1713
ag1714
ag1715
atp5323
Rp5324
sg1816
g2
((lp5325
g1816
ag1814
atp5326
Rp5327
sg1730
g2
((lp5328
g1730
ag1728
atp5329
Rp5330
sg5318
g2
((lp5331
g5318
ag5316
ag5319
atp5332
Rp5333
sg5060
g2
((lp5334
g5058
ag5060
atp5335
Rp5336
sg925
g2
((lp5337
g926
ag922
ag925
ag924
ag927
atp5338
Rp5339
sS'artemus'
p5340
g2
((lp5341
g5340
aS'art'
p5342
atp5343
Rp5344
sg1073
g2
((lp5345
g2440
ag2652
ag1070
ag1075
ag2442
ag1073
ag1076
ag2445
ag2444
atp5346
Rp5347
sg2333
g2
((lp5348
g2331
ag2332
ag2329
ag2333
atp5349
Rp5350
sg4349
g2
((lp5351
g4348
ag4346
ag4349
ag4350
atp5352
Rp5353
sg2685
g2
((lp5354
g2684
ag2685
ag2682
ag2686
ag2687
atp5355
Rp5356
sg4012
g2
((lp5357
g4012
ag4013
ag4149
ag4014
ag4015
ag4016
ag4017
ag4150
atp5358
Rp5359
sg2994
g2
((lp5360
g2994
ag2995
ag2996
ag2997
ag2992
atp5361
Rp5362
sg2158
g2
((lp5363
g2158
ag2159
ag2156
atp5364
Rp5365
sg4978
g2
((lp5366
g4978
ag2298
ag2304
ag2300
ag2301
ag2302
ag4976
atp5367
Rp5368
sg3270
g2
((lp5369
g3266
ag3270
aS'nettie'
p5370
atp5371
Rp5372
sg313
g2
((lp5373
g305
ag303
ag306
ag307
ag308
ag309
ag310
ag311
ag312
ag313
ag314
ag315
ag316
ag317
ag318
atp5374
Rp5375
sS'tabby'
p5376
g2
((lp5377
S'tabitha'
p5378
ag5376
atp5379
Rp5380
sg3736
g2
((lp5381
g3734
ag3736
ag3737
atp5382
Rp5383
sg993
g2
((lp5384
g989
ag990
ag991
ag987
ag992
ag993
atp5385
Rp5386
sg708
g2
((lp5387
g703
ag704
ag705
ag706
ag707
ag708
ag701
atp5388
Rp5389
sg446
g2
((lp5390
g446
ag443
ag447
ag439
ag445
atp5391
Rp5392
sg4762
g2
((lp5393
g4762
ag4763
ag4760
ag4764
ag4765
atp5394
Rp5395
sg2874
g2
((lp5396
g2872
ag2874
atp5397
Rp5398
sg5342
g2
((lp5399
g5340
ag5342
aS'arthur'
p5400
atp5401
Rp5402
sg1715
g2
((lp5403
g1710
ag1715
ag1712
ag1713
ag1714
ag2580
atp5404
Rp5405
sg464
g2
((lp5406
g462
ag463
ag460
ag464
atp5407
Rp5408
sg1722
g2
((lp5409
g1720
ag1721
ag1379
ag1722
ag1718
ag1723
ag1724
ag1725
atp5410
Rp5411
sg874
g2
((lp5412
g874
ag875
ag872
ag876
atp5413
Rp5414
sS'geoff'
p5415
g2
((lp5416
S'geoffrey'
p5417
ag5415
atp5418
Rp5419
sg555
g2
((lp5420
S'nora'
p5421
ag555
atp5422
Rp5423
sS'leslie'
p5424
g2
((lp5425
S'les'
p5426
ag5424
aS'lester'
p5427
atp5428
Rp5429
sg255
g2
((lp5430
g253
ag254
ag255
ag251
ag256
atp5431
Rp5432
sg949
g2
((lp5433
g944
ag1655
ag2303
ag947
ag948
ag2298
ag945
ag2300
ag2301
ag946
ag2302
ag942
ag1653
ag949
atp5434
Rp5435
sg4610
g2
((lp5436
g2706
ag4610
ag2708
ag4607
ag4609
atp5437
Rp5438
sg1358
g2
((lp5439
g1359
ag1358
ag2392
ag1355
atp5440
Rp5441
sg939
g2
((lp5442
g939
ag937
atp5443
Rp5444
sg4401
g2
((lp5445
g2759
ag2760
ag2763
ag2761
ag2765
ag2769
ag2767
ag2770
ag2764
ag2762
ag317
ag2766
ag2768
ag4399
ag4401
atp5446
Rp5447
sg1107
g2
((lp5448
g1107
ag1108
ag1110
ag1174
atp5449
Rp5450
sg641
g2
((lp5451
g642
ag1927
ag1924
ag641
ag643
atp5452
Rp5453
sg4969
g2
((lp5454
g4967
ag4969
ag4970
atp5455
Rp5456
sg1590
g2
((lp5457
g1590
ag1587
ag1585
ag1582
ag1579
atp5458
Rp5459
sg3912
g2
((lp5460
g3912
aS'mary'
p5461
atp5462
Rp5463
sg5303
g2
((lp5464
g5303
ag5301
ag5304
atp5465
Rp5466
sg3585
g2
((lp5467
g4943
ag4946
aS'ann'
p5468
ag2313
ag2308
ag3585
ag2310
ag3586
ag2311
ag3588
atp5469
Rp5470
sg3148
g2
((lp5471
g3142
ag2029
ag4012
ag4013
ag2031
ag3140
ag4014
ag3143
ag4015
ag3144
ag4017
ag3145
ag508
ag3146
ag510
ag3147
ag3148
atp5472
Rp5473
sg4046
g2
((lp5474
g4044
ag1241
ag4046
atp5475
Rp5476
sg3061
g2
((lp5477
g3061
ag3059
ag3062
atp5478
Rp5479
sg4809
g2
((lp5480
g4858
ag4610
ag4863
ag4809
ag4810
ag4860
ag4806
ag4808
ag4607
ag4861
ag1977
atp5481
Rp5482
sS'lauryn'
p5483
g2
((lp5484
S'laurie'
p5485
ag5483
atp5486
Rp5487
sg1762
g2
((lp5488
g1760
ag1762
ag2753
atp5489
Rp5490
sS'sammy'
p5491
g2
((lp5492
S'samantha'
p5493
ag5491
aS'sam'
p5494
aS'mantha'
p5495
atp5496
Rp5497
sg2338
g2
((lp5498
g2336
ag2338
atp5499
Rp5500
sg1785
g2
((lp5501
g1783
ag1785
atp5502
Rp5503
sS'johannes'
p5504
g2
((lp5505
g5504
aS'jonathan'
p5506
aS'johnjohnny'
p5507
atp5508
Rp5509
sg5417
g2
((lp5510
g5417
ag5415
atp5511
Rp5512
sg3515
g2
((lp5513
g3514
ag3512
ag3515
atp5514
Rp5515
sg3762
g2
((lp5516
g3762
ag3760
atp5517
Rp5518
sg3825
g2
((lp5519
g3825
ag3823
atp5520
Rp5521
sg3537
g2
((lp5522
g3535
ag3537
atp5523
Rp5524
sg3161
g2
((lp5525
g3159
ag3161
atp5526
Rp5527
sg1632
g2
((lp5528
g2861
ag2859
ag2484
ag1636
ag1632
ag2860
ag2485
ag1634
atp5529
Rp5530
sg927
g2
((lp5531
g1983
ag924
ag922
ag925
ag1985
ag926
ag927
ag1987
ag1988
ag1989
atp5532
Rp5533
sg299
g2
((lp5534
g298
ag3272
ag299
ag300
ag4630
ag296
atp5535
Rp5536
sg39
g2
((lp5537
g34
ag35
ag36
ag37
ag38
ag39
ag32
ag40
ag41
atp5538
Rp5539
sg4594
g2
((lp5540
g4593
ag4591
ag4594
atp5541
Rp5542
sg1329
g2
((lp5543
g3744
ag189
ag190
ag191
ag192
ag193
ag194
ag195
ag1323
ag1329
atp5544
Rp5545
sg3483
g2
((lp5546
g3483
aS'george'
p5547
aS'georgiana'
p5548
atp5549
Rp5550
sg4239
g2
((lp5551
g4207
ag4237
ag4205
ag4239
aS'william'
p5552
aS'willie'
p5553
ag4240
atp5554
Rp5555
sg1999
g2
((lp5556
g1997
ag1999
atp5557
Rp5558
sS'mindie'
p5559
g2
((lp5560
g5559
aS'arminda'
p5561
atp5562
Rp5563
sg2463
g2
((lp5564
g2461
aS'kissy'
p5565
ag2464
ag2463
atp5566
Rp5567
sg1542
g2
((lp5568
g1541
ag1542
ag1543
ag1539
atp5569
Rp5570
sg5197
g2
((lp5571
g5194
ag5196
ag1769
ag5197
ag5198
atp5572
Rp5573
sg1555
g2
((lp5574
g1548
ag1549
ag1546
ag1550
ag1551
ag1552
ag1553
ag1554
ag1555
atp5575
Rp5576
sg2397
g2
((lp5577
g2397
ag2395
ag2398
ag2399
atp5578
Rp5579
sg340
g2
((lp5580
g341
ag340
ag343
ag338
ag352
ag344
atp5581
Rp5582
sg2376
g2
((lp5583
g2374
ag2376
ag2377
atp5584
Rp5585
sS'von'
p5586
g2
((lp5587
S'levone'
p5588
ag5586
aS'lavonne'
p5589
atp5590
Rp5591
sg4710
g2
((lp5592
S'bernard'
p5593
ag4710
ag4708
aS'bernie'
p5594
atp5595
Rp5596
sg3353
g2
((lp5597
g3350
ag3352
ag3353
ag3354
atp5598
Rp5599
sg691
g2
((lp5600
g688
ag690
ag4435
ag2256
ag691
atp5601
Rp5602
sg2351
g2
((lp5603
g2349
ag2351
ag2352
atp5604
Rp5605
sg4377
g2
((lp5606
g4375
ag4377
atp5607
Rp5608
sg2286
g2
((lp5609
g2284
ag2286
atp5610
Rp5611
sg2437
g2
((lp5612
g2433
ag2434
ag2435
ag2436
ag2431
ag2437
atp5613
Rp5614
sg1010
g2
((lp5615
g3767
ag1007
ag1009
ag3765
ag1010
atp5616
Rp5617
sg2423
g2
((lp5618
g2420
ag2422
ag2423
atp5619
Rp5620
sg1115
g2
((lp5621
g1559
ag1115
ag1117
atp5622
Rp5623
sg5035
g2
((lp5624
g5035
aS'ernestine'
p5625
aS'ernie'
p5626
atp5627
Rp5628
sg3221
g2
((lp5629
g3221
ag3876
ag3220
ag3222
atp5630
Rp5631
sg2311
g2
((lp5632
g2310
ag2308
ag2311
ag2312
ag2313
atp5633
Rp5634
sg3074
g2
((lp5635
g3072
ag3073
ag3070
ag3074
ag3075
atp5636
Rp5637
sg2387
g2
((lp5638
g2387
ag2385
ag2388
atp5639
Rp5640
sg4808
g2
((lp5641
g4808
ag4806
ag4809
ag4810
atp5642
Rp5643
sg5427
g2
((lp5644
g5426
ag5424
ag5427
atp5645
Rp5646
sg3532
g2
((lp5647
g3531
ag3532
ag3529
atp5648
Rp5649
sg5494
g2
((lp5650
g3136
ag2005
ag5494
ag2624
ag5493
ag5491
ag3134
ag5495
atp5651
Rp5652
sg3354
g2
((lp5653
g3350
ag3353
ag3354
atp5654
Rp5655
sS'adrienne'
p5656
g2
((lp5657
g5656
aS'adrian'
p5658
atp5659
Rp5660
sg347
g2
((lp5661
g347
ag345
ag351
aS'mel'
p5662
atp5663
Rp5664
sg3220
g2
((lp5665
g3221
ag3876
ag3220
ag3222
atp5666
Rp5667
sg5277
g2
((lp5668
g5275
ag416
ag5277
atp5669
Rp5670
sg835
g2
((lp5671
g833
ag835
ag836
atp5672
Rp5673
sg2462
g2
((lp5674
g2459
ag2462
atp5675
Rp5676
sg4889
g2
((lp5677
g4887
ag4885
ag4888
ag4889
atp5678
Rp5679
sg2453
g2
((lp5680
g2453
ag2451
ag1402
ag2454
ag1407
ag2455
ag2456
atp5681
Rp5682
sg5285
g2
((lp5683
g5283
ag5285
atp5684
Rp5685
sg1527
g2
((lp5686
g1345
ag1346
ag1347
ag1348
ag1525
ag1350
ag1526
ag1523
ag1527
ag1343
ag1354
ag1356
ag1357
ag1360
ag1519
ag1528
atp5687
Rp5688
sS'caldonia'
p5689
g2
((lp5690
S'calliedona'
p5691
ag5689
atp5692
Rp5693
sS'ambrose'
p5694
g2
((lp5695
g5694
aS'brose'
p5696
atp5697
Rp5698
sg1926
g2
((lp5699
g1925
ag1926
ag1920
ag4476
ag1921
ag1922
ag1923
ag4477
atp5700
Rp5701
sg475
g2
((lp5702
g472
ag474
ag475
atp5703
Rp5704
sg1695
g2
((lp5705
S'chris'
p5706
aS'christopher'
p5707
aS'christian'
p5708
ag1695
aS'kit'
p5709
atp5710
Rp5711
sg5400
g2
((lp5712
g5400
aS'art'
p5713
atp5714
Rp5715
sg5206
g2
((lp5716
g5206
ag5204
atp5717
Rp5718
sg1292
g2
((lp5719
g847
ag849
ag851
ag1297
ag1292
ag853
aS'john'
p5720
ag855
ag856
atp5721
Rp5722
sg3514
g2
((lp5723
g3512
ag3515
aS'sandra'
p5724
ag3514
aS'sandy'
p5725
atp5726
Rp5727
sg1962
g2
((lp5728
g1960
ag1962
ag1963
ag1964
atp5729
Rp5730
sg564
g2
((lp5731
g564
ag565
ag566
ag567
ag568
ag569
ag570
ag562
atp5732
Rp5733
sg2821
g2
((lp5734
g2821
ag2819
ag2822
atp5735
Rp5736
sg3616
g2
((lp5737
g3614
ag3616
atp5738
Rp5739
sg2975
g2
((lp5740
g2975
ag2973
atp5741
Rp5742
sS'lorraine'
p5743
g2
((lp5744
g5743
aS'lorrie'
p5745
atp5746
Rp5747
sg5588
g2
((lp5748
g5588
ag5586
atp5749
Rp5750
sg3586
g2
((lp5751
g3585
ag5468
ag3586
ag3588
atp5752
Rp5753
sg3588
g2
((lp5754
g393
ag1682
ag396
ag5468
ag397
ag398
ag1685
ag395
ag3585
ag3275
ag3586
ag3588
ag3264
atp5755
Rp5756
sg3684
g2
((lp5757
g3682
ag3684
atp5758
Rp5759
sg1438
g2
((lp5760
g1433
ag1434
ag1435
ag1431
ag1436
ag1437
ag1438
atp5761
Rp5762
sg1434
g2
((lp5763
g1433
ag1434
ag1435
ag1431
ag1436
ag1437
ag1438
atp5764
Rp5765
sg425
g2
((lp5766
g423
ag424
ag425
ag421
ag426
atp5767
Rp5768
sg88
g2
((lp5769
g84
ag85
ag86
ag87
ag82
ag88
ag89
ag90
atp5770
Rp5771
sS'athy'
p5772
g2
((lp5773
g5772
aS'eighta'
p5774
atp5775
Rp5776
sS'faith'
p5777
g2
((lp5778
g5777
aS'fay'
p5779
atp5780
Rp5781
sg1428
g2
((lp5782
g1426
ag1428
atp5783
Rp5784
sg1459
g2
((lp5785
g1458
ag1459
ag1460
ag1456
ag1461
atp5786
Rp5787
sg903
g2
((lp5788
g903
ag904
ag901
atp5789
Rp5790
sg532
g2
((lp5791
g527
ag529
ag530
ag531
ag532
ag533
ag534
ag535
atp5792
Rp5793
sg3937
g2
((lp5794
g3935
ag3937
atp5795
Rp5796
sS'leenlina'
p5797
g2
((lp5798
S'lena'
p5799
ag5797
atp5800
Rp5801
sg3398
g2
((lp5802
g3398
ag3396
atp5803
Rp5804
sg2152
g2
((lp5805
g2150
ag2151
ag2152
ag2153
ag2148
atp5806
Rp5807
sg426
g2
((lp5808
g423
ag424
ag425
ag421
ag426
atp5809
Rp5810
sg1146
g2
((lp5811
g1141
ag1142
ag1143
ag1144
ag1423
ag1146
ag1149
ag1148
atp5812
Rp5813
sg4078
g2
((lp5814
g4075
ag4073
ag4076
ag4077
ag4078
ag4079
ag4080
ag4081
ag4082
ag4083
atp5815
Rp5816
sg2658
g2
((lp5817
g2657
ag2655
ag2658
ag2659
ag2660
atp5818
Rp5819
sg4525
g2
((lp5820
g4525
aS'ali'
p5821
atp5822
Rp5823
sg1862
g2
((lp5824
g1856
ag1857
ag1858
ag1859
ag1850
ag1860
ag1861
ag1862
ag1863
atp5825
Rp5826
sg3136
g2
((lp5827
g3136
ag3134
ag3137
atp5828
Rp5829
sg2141
g2
((lp5830
g2139
ag2140
ag2141
ag2137
ag2142
atp5831
Rp5832
sg1856
g2
((lp5833
g1856
ag1857
ag1858
ag1859
ag1850
ag1860
ag1861
ag1862
ag1863
atp5834
Rp5835
sg3611
g2
((lp5836
g3611
aS'mitty'
p5837
atp5838
Rp5839
sS'chauncey'
p5840
g2
((lp5841
S'chance'
p5842
ag5840
atp5843
Rp5844
sg4742
g2
((lp5845
g4742
ag4740
ag4743
atp5846
Rp5847
sg1182
g2
((lp5848
g1180
ag1182
atp5849
Rp5850
sg569
g2
((lp5851
g564
ag565
ag566
ag567
ag568
ag569
ag570
ag562
atp5852
Rp5853
sS'link'
p5854
g2
((lp5855
S'lincoln'
p5856
ag5854
atp5857
Rp5858
sg2888
g2
((lp5859
S'angelina'
p5860
ag2103
aS'millie'
p5861
ag2104
ag2105
ag2888
aS'emily'
p5862
atp5863
Rp5864
sg5779
g2
((lp5865
g5777
ag5779
atp5866
Rp5867
sg2209
g2
((lp5868
g2206
ag2208
ag2209
ag2210
atp5869
Rp5870
sS'rhyna'
p5871
g2
((lp5872
g5871
aS'rhynie'
p5873
atp5874
Rp5875
sg1642
g2
((lp5876
g1641
ag1639
ag1643
ag1642
atp5877
Rp5878
sg2092
g2
((lp5879
g2092
aS'roland'
p5880
aS'orlando'
p5881
atp5882
Rp5883
sg4327
g2
((lp5884
g4326
ag4327
ag4328
ag4324
atp5885
Rp5886
sg3316
g2
((lp5887
g3315
ag3313
ag3316
atp5888
Rp5889
sg4887
g2
((lp5890
g4887
ag4885
ag4888
ag4889
atp5891
Rp5892
sg1571
g2
((lp5893
g1571
ag1569
ag1572
atp5894
Rp5895
sg203
g2
((lp5896
g200
ag203
atp5897
Rp5898
sg1720
g2
((lp5899
g1720
ag1721
ag740
ag1722
ag1718
ag1723
ag1724
ag1725
ag743
ag745
ag2026
atp5900
Rp5901
sg3864
g2
((lp5902
g3864
ag3862
atp5903
Rp5904
sS'chat'
p5905
g2
((lp5906
g5905
aS'charity'
p5907
atp5908
Rp5909
sg1554
g2
((lp5910
g1548
ag1549
ag1546
ag1550
ag1551
ag1552
ag1553
ag1554
ag1555
atp5911
Rp5912
sg2189
g2
((lp5913
g2189
ag2190
ag2191
ag2187
ag2192
atp5914
Rp5915
sg398
g2
((lp5916
g1581
ag396
aS'ann'
p5917
ag397
ag398
ag395
aS'nancy'
p5918
aS'agnes'
p5919
ag1592
ag399
ag393
atp5920
Rp5921
sg1541
g2
((lp5922
g1541
ag1543
ag1539
ag1542
aS'nicholas'
p5923
aS'nicodemus'
p5924
atp5925
Rp5926
sg4860
g2
((lp5927
g4860
ag4858
ag4861
ag4862
ag4863
atp5928
Rp5929
sg1334
g2
((lp5930
g3744
ag189
ag1330
ag1327
ag1325
ag1326
ag190
ag1331
ag1332
ag2123
ag1334
ag2124
ag197
atp5931
Rp5932
sg1291
g2
((lp5933
g3541
ag1286
ag1113
ag3542
ag3543
ag1291
ag3544
ag1293
ag3545
ag1288
ag1118
atp5934
Rp5935
sg366
g2
((lp5936
g363
ag364
ag365
ag361
ag366
atp5937
Rp5938
sg715
g2
((lp5939
g715
ag716
ag2807
ag2808
atp5940
Rp5941
sg3421
g2
((lp5942
g3421
ag3419
atp5943
Rp5944
sS'lena'
p5945
g2
((lp5946
g3744
ag1201
ag5945
ag86
ag87
ag191
ag5797
ag1204
ag190
aS'helen'
p5947
ag88
ag197
ag1209
ag90
ag84
aS'arlene'
p5948
ag82
ag1208
ag192
ag193
ag1205
ag194
ag195
ag1207
ag89
ag1206
atp5949
Rp5950
sg4051
g2
((lp5951
g4049
ag4051
atp5952
Rp5953
sg1925
g2
((lp5954
g1925
ag1926
ag1920
ag4476
ag1921
ag1922
ag1923
ag4477
atp5955
Rp5956
sg4182
g2
((lp5957
g4182
ag4178
ag4181
atp5958
Rp5959
sg1409
g2
((lp5960
g4237
ag3186
ag2597
ag4239
ag2598
ag1408
ag1409
ag1410
ag1411
ag1412
ag1405
ag1414
ag4240
atp5961
Rp5962
sg3337
g2
((lp5963
g3336
ag3334
ag3337
ag3338
atp5964
Rp5965
sg1634
g2
((lp5966
g2861
ag2859
ag2484
ag1636
ag1632
ag2860
ag2485
ag1634
atp5967
Rp5968
sg1923
g2
((lp5969
g1925
ag1926
ag1920
ag4476
ag1921
ag1922
ag1923
ag4477
atp5970
Rp5971
sS'ariadne'
p5972
g2
((lp5973
g5972
aS'arie'
p5974
atp5975
Rp5976
sg704
g2
((lp5977
g703
ag2735
ag2736
ag704
ag705
ag706
ag707
atp5978
Rp5979
sg2203
g2
((lp5980
g2200
ag2202
ag2203
atp5981
Rp5982
sg412
g2
((lp5983
g409
ag431
ag411
ag412
ag434
ag413
ag429
ag435
atp5984
Rp5985
sS'kristel'
p5986
g2
((lp5987
g5986
aS'kris'
p5988
atp5989
Rp5990
sg2012
g2
((lp5991
g2012
ag2010
atp5992
Rp5993
sg2747
g2
((lp5994
g2747
ag2745
atp5995
Rp5996
sg580
g2
((lp5997
g580
ag578
ag581
ag582
ag583
ag584
atp5998
Rp5999
sg534
g2
((lp6000
g527
ag529
ag530
ag531
ag532
ag533
ag534
ag535
atp6001
Rp6002
sS'vicy'
p6003
g2
((lp6004
g6003
aS'levicy'
p6005
atp6006
Rp6007
sg441
g2
((lp6008
g441
aS'cindy'
p6009
ag448
atp6010
Rp6011
sg424
g2
((lp6012
g423
ag424
ag425
ag421
ag426
atp6013
Rp6014
sg1277
g2
((lp6015
g1276
aS'wib'
p6016
ag1277
ag1278
ag1274
ag1279
ag1280
atp6017
Rp6018
sg3416
g2
((lp6019
S'isadora'
p6020
aS'isidore'
p6021
ag3416
atp6022
Rp6023
sg6005
g2
((lp6024
g6003
ag6005
atp6025
Rp6026
sg2851
g2
((lp6027
g2851
ag2849
ag2852
atp6028
Rp6029
sg541
g2
((lp6030
g540
ag541
ag538
ag542
ag543
atp6031
Rp6032
sg3485
g2
((lp6033
g3483
ag3484
ag3481
ag3485
atp6034
Rp6035
sg5974
g2
((lp6036
g1062
ag5972
ag5974
atp6037
Rp6038
sg1205
g2
((lp6039
g1201
ag1203
ag1206
ag1207
ag1209
ag1205
ag1204
atp6040
Rp6041
sg1675
g2
((lp6042
g1674
ag3059
ag1671
ag1675
ag3061
ag1676
atp6043
Rp6044
sg992
g2
((lp6045
g989
ag990
ag991
ag987
ag992
ag993
atp6046
Rp6047
sg1631
g2
((lp6048
g1631
ag1629
ag2484
ag1636
ag1632
ag2480
ag2485
ag1634
ag1635
atp6049
Rp6050
sg2151
g2
((lp6051
g2150
ag2151
ag2152
ag2153
ag2148
atp6052
Rp6053
sg1453
g2
((lp6054
g1451
ag1453
ag2796
atp6055
Rp6056
sg2377
g2
((lp6057
g2374
ag2376
ag2377
atp6058
Rp6059
sg4659
g2
((lp6060
g4657
ag4659
ag4660
atp6061
Rp6062
sg276
g2
((lp6063
g269
ag270
ag267
ag271
ag272
ag273
ag274
ag275
ag276
ag277
ag278
ag279
ag280
ag281
ag282
ag283
ag284
ag285
atp6064
Rp6065
sg1740
g2
((lp6066
g1740
ag1741
ag1738
atp6067
Rp6068
sg4993
g2
((lp6069
g4992
ag4993
ag4990
atp6070
Rp6071
sg5198
g2
((lp6072
g5194
ag5196
ag1769
ag5197
ag5198
atp6073
Rp6074
sg1971
g2
((lp6075
g2453
ag1970
ag2451
ag1969
ag2456
ag1971
ag2455
ag1967
atp6076
Rp6077
sg1082
g2
((lp6078
g1080
ag1082
atp6079
Rp6080
sg4113
g2
((lp6081
g4113
ag4111
atp6082
Rp6083
sg1616
g2
((lp6084
g1611
ag1612
ag1613
ag1614
ag661
ag1615
ag1616
ag1609
atp6085
Rp6086
sg5594
g2
((lp6087
g5593
aS'barney'
p6088
ag5594
atp6089
Rp6090
sg3011
g2
((lp6091
g3011
ag3009
atp6092
Rp6093
sg4103
g2
((lp6094
g4103
ag4101
atp6095
Rp6096
sg557
g2
((lp6097
g553
ag685
ag559
ag557
ag552
atp6098
Rp6099
sg4428
g2
((lp6100
g4427
ag4423
ag4428
atp6101
Rp6102
sg575
g2
((lp6103
g573
ag575
atp6104
Rp6105
sg4646
g2
((lp6106
S'lisa'
p6107
ag4646
atp6108
Rp6109
sg2202
g2
((lp6110
g2200
ag2203
ag1507
ag1502
ag1505
ag1508
ag1506
ag2202
atp6111
Rp6112
sg5988
g2
((lp6113
g2461
ag5988
ag4840
ag5565
ag4475
ag5986
ag2463
atp6114
Rp6115
sg1354
g2
((lp6116
g1345
ag1346
ag1347
ag1348
ag1349
ag1350
ag1351
ag1352
ag1353
ag1343
ag1354
ag1356
ag1357
ag1360
ag1361
ag1362
atp6117
Rp6118
sg707
g2
((lp6119
g703
ag2735
ag2736
ag704
ag705
ag706
ag707
atp6120
Rp6121
sg568
g2
((lp6122
g564
ag565
ag566
ag567
ag568
ag569
ag570
ag562
atp6123
Rp6124
sg2791
g2
((lp6125
g1
ag14
ag2788
ag2789
ag2790
ag2786
ag2791
ag9
ag6
ag2792
ag11
atp6126
Rp6127
sg5923
g2
((lp6128
S'nick'
p6129
ag5923
aS'nicky'
p6130
atp6131
Rp6132
sg1148
g2
((lp6133
g1141
ag1142
ag1143
ag1144
ag1423
ag1146
ag1149
ag1148
atp6134
Rp6135
sg1320
g2
((lp6136
g1319
ag4425
ag4426
ag1316
ag1320
atp6137
Rp6138
sg4863
g2
((lp6139
g4860
ag4858
ag4861
ag4862
ag4863
atp6140
Rp6141
sg2884
g2
((lp6142
g2882
ag2883
ag2880
ag2884
atp6143
Rp6144
sg4946
g2
((lp6145
g4943
ag4945
ag4946
atp6146
Rp6147
sg4541
g2
((lp6148
g4539
ag2222
ag4541
atp6149
Rp6150
sg2357
g2
((lp6151
g2355
ag2357
atp6152
Rp6153
sg4810
g2
((lp6154
g4808
ag4806
ag4809
ag4810
atp6155
Rp6156
sg3194
g2
((lp6157
g3194
ag3192
atp6158
Rp6159
sg5426
g2
((lp6160
g5426
ag5424
ag5427
atp6161
Rp6162
sg99
g2
((lp6163
g95
ag96
ag97
ag93
ag98
ag99
ag100
ag101
ag102
ag103
ag104
atp6164
Rp6165
sg4743
g2
((lp6166
g4742
ag4740
ag4743
atp6167
Rp6168
sg448
g2
((lp6169
g3633
ag441
ag6009
ag448
atp6170
Rp6171
sg535
g2
((lp6172
g527
ag529
ag530
ag531
ag532
ag533
ag534
ag535
atp6173
Rp6174
sg177
g2
((lp6175
g175
ag177
ag178
ag179
atp6176
Rp6177
sg3050
g2
((lp6178
g3050
aS'cal'
p6179
atp6180
Rp6181
sS'orphelia'
p6182
g2
((lp6183
g6182
aS'phelia'
p6184
atp6185
Rp6186
sg963
g2
((lp6187
g960
ag959
ag962
ag961
ag963
ag957
atp6188
Rp6189
sg1591
g2
((lp6190
g1
ag1589
ag14
ag1583
ag6
ag11
ag2788
ag2789
ag2790
ag2786
ag2791
ag1588
ag9
ag1591
ag3255
atp6191
Rp6192
sg558
g2
((lp6193
g548
ag2550
ag550
ag2551
ag558
atp6194
Rp6195
sg1673
g2
((lp6196
g1673
aS'cecilia'
p6197
atp6198
Rp6199
sg6016
g2
((lp6200
S'wilber'
p6201
ag6016
atp6202
Rp6203
sg3378
g2
((lp6204
g3377
ag3378
aS'cissy'
p6205
ag3379
atp6206
Rp6207
sg735
g2
((lp6208
g733
ag731
ag734
ag735
atp6209
Rp6210
sg4405
g2
((lp6211
g4405
aS'ab'
p6212
ag4410
aS'abbie'
p6213
atp6214
Rp6215
sg4285
g2
((lp6216
g4283
ag1107
ag4281
ag1174
ag3378
ag4285
ag6205
ag4284
ag1108
atp6217
Rp6218
sg2461
g2
((lp6219
g2461
ag5565
ag2464
ag2463
atp6220
Rp6221
sg4392
g2
((lp6222
g4390
ag4392
ag4388
atp6223
Rp6224
sg721
g2
((lp6225
g719
ag721
atp6226
Rp6227
sg3233
g2
((lp6228
g3233
ag3234
ag3231
ag3235
atp6229
Rp6230
sg1586
g2
((lp6231
g1586
aS'agnes'
p6232
atp6233
Rp6234
sg1803
g2
((lp6235
g1803
ag1804
ag1805
ag1801
ag1806
atp6236
Rp6237
sg2103
g2
((lp6238
g2103
ag5861
ag2104
ag2105
ag2106
ag5862
atp6239
Rp6240
sg5378
g2
((lp6241
g5378
ag5376
atp6242
Rp6243
sg5506
g2
((lp6244
g3541
ag1286
ag5507
ag3542
ag5504
ag3543
ag1291
ag3544
ag5506
ag3545
ag1288
atp6245
Rp6246
sg4765
g2
((lp6247
g4762
ag4763
ag4760
ag4764
ag4765
atp6248
Rp6249
sg4326
g2
((lp6250
g4326
ag4327
ag4328
ag4324
atp6251
Rp6252
sg1941
g2
((lp6253
g1939
ag1941
atp6254
Rp6255
sg583
g2
((lp6256
g580
ag578
ag581
ag582
ag583
ag584
atp6257
Rp6258
sg5319
g2
((lp6259
g5318
ag5316
ag5319
atp6260
Rp6261
sg1611
g2
((lp6262
g1611
ag1612
ag1613
ag1614
ag1615
ag1616
ag1609
atp6263
Rp6264
sg4874
g2
((lp6265
g4872
ag4874
atp6266
Rp6267
sg1572
g2
((lp6268
g1571
ag1569
ag1572
atp6269
Rp6270
sg4297
g2
((lp6271
g4294
ag4296
ag4297
atp6272
Rp6273
sg785
g2
((lp6274
g783
ag785
atp6275
Rp6276
sg5907
g2
((lp6277
g5905
ag5907
atp6278
Rp6279
sg3083
g2
((lp6280
g72
ag3083
ag74
ag3081
ag3085
ag3084
ag70
atp6281
Rp6282
sg3178
g2
((lp6283
g3178
ag3176
atp6284
Rp6285
sg770
g2
((lp6286
g798
ag765
ag766
ag767
ag760
ag761
ag759
ag768
ag762
ag764
ag772
ag771
ag770
atp6287
Rp6288
sg1370
g2
((lp6289
g1367
ag1365
ag1368
ag1369
ag1370
atp6290
Rp6291
sS'etta'
p6292
g2
((lp6293
g625
ag626
aS'carthaette'
p6294
ag6292
ag628
ag3452
aS'etty'
p6295
ag2110
ag2702
ag2703
ag634
ag635
atp6296
Rp6297
sg3531
g2
((lp6298
g3531
ag3532
ag3529
atp6299
Rp6300
sg6295
g2
((lp6301
g6292
ag6294
ag6295
atp6302
Rp6303
sg2571
g2
((lp6304
g2569
ag2570
ag2571
ag2572
ag2567
atp6305
Rp6306
sg3968
g2
((lp6307
g3968
ag3966
atp6308
Rp6309
sg1059
g2
((lp6310
g1057
ag1058
ag1059
ag1055
atp6311
Rp6312
sg3756
g2
((lp6313
g847
ag849
ag3757
ag851
ag1297
ag3754
ag852
ag3756
ag854
ag853
ag856
atp6314
Rp6315
sg2660
g2
((lp6316
g2657
ag2655
ag2658
ag2659
ag2660
atp6317
Rp6318
sg4075
g2
((lp6319
g4075
ag4073
ag4076
ag4077
ag4078
ag4079
ag4080
ag4081
ag4082
ag4083
atp6320
Rp6321
sg1480
g2
((lp6322
g1474
ag1475
ag1476
ag1477
ag1478
ag1471
ag1479
ag1480
atp6323
Rp6324
sg2102
g2
((lp6325
g2102
ag2101
ag2931
atp6326
Rp6327
sg4992
g2
((lp6328
g4992
ag4993
ag4990
atp6329
Rp6330
sg1302
g2
((lp6331
g1302
ag1300
atp6332
Rp6333
sg3113
g2
((lp6334
S'sigfired'
p6335
ag3111
ag3113
ag1898
ag1944
atp6336
Rp6337
sg1129
g2
((lp6338
g1129
ag1131
ag1447
atp6339
Rp6340
sg2852
g2
((lp6341
g2851
ag2849
ag2852
atp6342
Rp6343
sg6184
g2
((lp6344
g6182
ag6184
atp6345
Rp6346
sg1661
g2
((lp6347
g1661
ag1659
ag1662
atp6348
Rp6349
sg4080
g2
((lp6350
g4075
ag4073
ag4076
ag4077
ag4078
ag4079
ag4080
ag4081
ag4082
ag4083
atp6351
Rp6352
sg744
g2
((lp6353
g744
ag738
ag741
atp6354
Rp6355
sg945
g2
((lp6356
g944
ag947
ag948
ag945
aS'bertha'
p6357
ag1277
ag946
ag942
ag1279
ag1274
ag949
ag1280
atp6358
Rp6359
sg36
g2
((lp6360
g34
ag35
ag36
ag37
ag38
ag39
ag32
ag40
ag41
atp6361
Rp6362
sg3073
g2
((lp6363
g3073
ag3072
ag3074
ag3075
ag3070
atp6364
Rp6365
sg616
g2
((lp6366
g616
ag614
ag617
ag618
ag619
ag620
atp6367
Rp6368
sg442
g2
((lp6369
g444
ag4180
ag442
atp6370
Rp6371
sg1592
g2
((lp6372
g1581
ag5918
ag5917
ag1584
ag1592
ag5919
atp6373
Rp6374
sg4390
g2
((lp6375
g4390
ag4392
ag4388
atp6376
Rp6377
sg1913
g2
((lp6378
g1913
ag1911
atp6379
Rp6380
sg4284
g2
((lp6381
g4283
ag4284
ag4285
ag4281
atp6382
Rp6383
sg3432
g2
((lp6384
g3430
ag3432
ag3433
ag3434
atp6385
Rp6386
sg116
g2
((lp6387
g116
ag117
ag114
ag5483
atp6388
Rp6389
sg1589
g2
((lp6390
g1581
ag2042
ag1583
ag1584
ag1588
ag1589
ag1591
ag1592
ag3255
atp6391
Rp6392
sg841
g2
((lp6393
g439
ag446
ag3208
ag841
ag839
ag443
ag447
atp6394
Rp6395
sg771
g2
((lp6396
g798
ag765
ag766
ag3415
ag767
ag760
ag761
ag759
ag383
ag768
ag762
ag764
ag388
ag772
ag771
ag770
atp6397
Rp6398
sg4283
g2
((lp6399
g4283
ag4281
ag3378
ag4285
ag6205
ag4284
atp6400
Rp6401
sg4224
g2
((lp6402
g4220
ag4222
ag4223
ag4224
atp6403
Rp6404
sg827
g2
((lp6405
g824
ag825
ag826
ag822
ag1289
ag1139
ag827
ag828
ag1147
ag1704
ag829
ag1296
ag830
atp6406
Rp6407
sg273
g2
((lp6408
g269
ag270
ag267
ag271
ag272
ag273
ag274
ag275
ag276
ag277
ag278
ag279
ag280
ag281
ag282
ag283
ag284
ag285
atp6409
Rp6410
sg2686
g2
((lp6411
g2684
ag2685
ag2682
ag2686
ag2687
atp6412
Rp6413
sg959
g2
((lp6414
g959
ag960
ag961
ag962
ag963
ag957
atp6415
Rp6416
sg1289
g2
((lp6417
g1287
ag1290
ag1289
ag1294
ag1704
ag1295
ag1296
atp6418
Rp6419
sg104
g2
((lp6420
g4754
ag4752
ag95
ag4755
ag96
ag97
ag93
ag98
ag99
ag100
ag101
ag102
ag103
ag104
atp6421
Rp6422
sS'wen'
p6423
g2
((lp6424
g6423
aS'wendy'
p6425
atp6426
Rp6427
sS'clifton'
p6428
g2
((lp6429
g6428
aS'cliff'
p6430
atp6431
Rp6432
sg814
g2
((lp6433
g811
ag812
ag813
ag814
ag809
atp6434
Rp6435
sg3564
g2
((lp6436
g3563
ag3564
ag3561
ag3565
atp6437
Rp6438
sg1376
g2
((lp6439
g1376
aS'silla'
p6440
atp6441
Rp6442
sg4699
g2
((lp6443
g4697
ag4699
atp6444
Rp6445
sg4238
g2
((lp6446
g4238
aS'willie'
p6447
atp6448
Rp6449
sg231
g2
((lp6450
g231
ag232
ag229
ag233
ag234
atp6451
Rp6452
sg280
g2
((lp6453
g269
ag270
ag267
ag271
ag272
ag273
ag274
ag275
ag276
ag277
ag278
ag279
ag280
ag281
ag282
ag283
ag284
ag285
atp6454
Rp6455
sg910
g2
((lp6456
g909
ag907
ag910
ag911
atp6457
Rp6458
sg909
g2
((lp6459
g909
ag907
ag910
ag911
atp6460
Rp6461
sg5948
g2
((lp6462
g5948
ag5945
atp6463
Rp6464
sg463
g2
((lp6465
g462
ag463
ag460
ag464
atp6466
Rp6467
sg282
g2
((lp6468
g269
ag270
ag267
ag271
ag272
ag273
ag274
ag275
ag276
ag277
ag278
ag279
ag280
ag281
ag282
ag283
ag284
ag285
atp6469
Rp6470
sS'edie'
p6471
g2
((lp6472
S'ade'
p6473
aS'adam'
p6474
ag4256
ag6471
ag929
atp6475
Rp6476
sg5691
g2
((lp6477
g5691
ag5689
atp6478
Rp6479
sg530
g2
((lp6480
g527
ag529
ag530
ag531
ag532
ag533
ag534
ag535
atp6481
Rp6482
sg2615
g2
((lp6483
g3623
ag2616
ag2614
ag2617
ag2615
ag2618
atp6484
Rp6485
sg103
g2
((lp6486
g77
ag95
ag5261
ag96
ag97
ag93
ag98
ag99
ag100
ag101
ag102
ag103
ag104
atp6487
Rp6488
sg380
g2
((lp6489
g380
ag381
ag387
ag1268
ag1270
ag378
ag1576
ag1271
atp6490
Rp6491
sS'matt'
p6492
g2
((lp6493
S'matthew'
p6494
ag6492
aS'matthias'
p6495
atp6496
Rp6497
sg1641
g2
((lp6498
g1641
ag1639
ag1643
ag1642
atp6499
Rp6500
sg2326
g2
((lp6501
g2325
ag2326
ag2323
atp6502
Rp6503
sg5873
g2
((lp6504
g5871
ag5873
atp6505
Rp6506
sg405
g2
((lp6507
g402
ag404
ag405
ag406
atp6508
Rp6509
sg2783
g2
((lp6510
g2783
aS'minnie'
p6511
atp6512
Rp6513
sg3075
g2
((lp6514
g3073
ag3072
ag3074
ag3075
ag3070
atp6515
Rp6516
sg618
g2
((lp6517
g616
ag3905
ag619
ag2416
ag614
ag617
ag2415
ag620
ag2413
ag618
atp6518
Rp6519
sg2238
g2
((lp6520
g2238
ag2235
ag2241
ag623
atp6521
Rp6522
sg2059
g2
((lp6523
g2055
ag2062
ag2061
ag2059
ag2057
atp6524
Rp6525
sg4250
g2
((lp6526
g4250
aS'francis'
p6527
ag2922
aS'frances'
p6528
atp6529
Rp6530
sg1347
g2
((lp6531
g1345
ag1346
ag1347
ag1348
ag1349
ag1350
ag1351
ag1352
ag1353
ag1343
ag1354
ag1356
ag1357
ag1360
ag1361
ag1362
atp6532
Rp6533
sg488
g2
((lp6534
g488
ag489
ag490
ag491
ag486
ag492
ag493
atp6535
Rp6536
sg4081
g2
((lp6537
g4075
ag4073
ag4076
ag4077
ag4078
ag4079
ag4080
ag4081
ag4082
ag4083
atp6538
Rp6539
sg324
g2
((lp6540
g321
ag323
ag324
ag325
ag326
ag327
atp6541
Rp6542
sg1687
g2
((lp6543
S'vannie'
p6544
ag1687
atp6545
Rp6546
sg2995
g2
((lp6547
g2994
aS'valerie'
p6548
ag2995
ag2996
ag2997
ag2992
atp6549
Rp6550
sg4641
g2
((lp6551
g4640
ag4641
ag4931
atp6552
Rp6553
sg1957
g2
((lp6554
g1956
ag1954
ag1957
atp6555
Rp6556
sg5054
g2
((lp6557
S'adeline'
p6558
aS'addie'
p6559
ag5054
atp6560
Rp6561
sS'adrian'
p6562
g2
((lp6563
g5656
aS'rian'
p6564
ag6562
atp6565
Rp6566
sg632
g2
((lp6567
g2237
ag629
ag2240
ag632
ag633
ag2111
atp6568
Rp6569
sg5774
g2
((lp6570
g5772
ag5774
atp6571
Rp6572
sg548
g2
((lp6573
g548
ag2551
ag558
ag550
atp6574
Rp6575
sg549
g2
((lp6576
g549
aS'elenor'
p6577
ag551
ag554
ag546
aS'honor'
p6578
atp6579
Rp6580
sg6495
g2
((lp6581
g6494
ag6492
ag6495
atp6582
Rp6583
sg5127
g2
((lp6584
g5127
ag5125
atp6585
Rp6586
sg504
g2
((lp6587
g564
ag502
ag565
ag568
ag504
ag505
ag503
ag567
ag501
ag569
ag570
ag499
ag562
atp6588
Rp6589
sg2666
g2
((lp6590
g2663
ag2665
ag2666
atp6591
Rp6592
sg745
g2
((lp6593
g740
ag745
ag2026
ag743
ag742
atp6594
Rp6595
sg3352
g2
((lp6596
g3352
aS'shay'
p6597
aS'sha'
p6598
atp6599
Rp6600
sg1603
g2
((lp6601
g1603
ag1601
ag1604
ag1605
ag1606
atp6602
Rp6603
sg4022
g2
((lp6604
g4022
ag4020
atp6605
Rp6606
sg3542
g2
((lp6607
g3818
ag3819
ag3544
ag3820
ag3545
ag3543
ag3542
atp6608
Rp6609
sg4408
g2
((lp6610
S'ab'
p6611
ag4405
ag4406
ag4407
ag4411
ag4409
ag4410
ag4408
atp6612
Rp6613
sg489
g2
((lp6614
g488
ag489
ag490
ag491
ag486
ag492
ag493
atp6615
Rp6616
sg306
g2
((lp6617
g305
ag303
ag306
ag307
ag308
ag309
ag310
ag311
ag312
ag313
ag314
ag315
ag316
ag317
ag318
atp6618
Rp6619
sg307
g2
((lp6620
g305
ag303
ag306
ag307
ag308
ag309
ag310
ag311
ag312
ag313
ag314
ag315
ag316
ag317
ag318
atp6621
Rp6622
sg298
g2
((lp6623
g298
ag292
ag3272
ag299
ag300
ag288
ag293
ag296
atp6624
Rp6625
sg2266
g2
((lp6626
g2262
ag2264
ag2265
ag2266
atp6627
Rp6628
sg1548
g2
((lp6629
g4516
ag1548
ag2542
ag1549
ag1546
ag1550
ag1551
ag1552
ag2540
ag1553
ag1554
ag1555
atp6630
Rp6631
sg3594
g2
((lp6632
g3593
ag3594
ag3595
ag3591
ag3596
atp6633
Rp6634
sg2832
g2
((lp6635
g4534
ag2832
ag2828
ag2830
ag2831
ag2833
atp6636
Rp6637
sg4181
g2
((lp6638
g4182
ag4178
ag4181
atp6639
Rp6640
sg1612
g2
((lp6641
g1611
ag1612
ag1613
ag1614
ag1615
ag1616
ag1609
atp6642
Rp6643
sg373
g2
((lp6644
g371
ag372
ag373
ag369
ag374
ag375
atp6645
Rp6646
sg4172
g2
((lp6647
g4170
ag4172
atp6648
Rp6649
sg491
g2
((lp6650
g488
ag489
ag490
ag491
ag486
ag492
ag493
atp6651
Rp6652
sg1269
g2
((lp6653
g1263
ag1269
ag1266
ag5028
atp6654
Rp6655
sg5304
g2
((lp6656
g5303
ag5301
ag5304
atp6657
Rp6658
sg6357
g2
((lp6659
S'bertie'
p6660
ag6357
atp6661
Rp6662
sg4410
g2
((lp6663
g4405
ag6212
ag4410
ag6213
atp6664
Rp6665
sg1676
g2
((lp6666
g1674
ag1675
ag1676
ag1671
atp6667
Rp6668
sg1473
g2
((lp6669
g1473
aS'sue'
p6670
aS'suzanne'
p6671
aS'susie'
p6672
atp6673
Rp6674
sS'lindy'
p6675
g2
((lp6676
g6675
ag3017
aS'lynn'
p6677
aS'linda'
p6678
ag5662
ag347
aS'celinda'
p6679
atp6680
Rp6681
sg2521
g2
((lp6682
g2522
ag2516
ag2517
ag2518
ag2514
ag2521
ag2524
atp6683
Rp6684
sg142
g2
((lp6685
g139
ag140
ag137
ag987
ag991
ag142
ag992
ag993
ag144
atp6686
Rp6687
sg4879
g2
((lp6688
g4879
ag1789
ag3430
ag348
aS'millicent'
p6689
ag3432
ag349
ag350
ag1565
ag4877
ag1564
ag342
ag1562
ag353
ag3433
atp6690
Rp6691
sg1266
g2
((lp6692
g1263
ag1266
ag1269
ag5028
atp6693
Rp6694
sg3215
g2
((lp6695
g3213
ag3215
ag3216
atp6696
Rp6697
sg1389
g2
((lp6698
g1384
ag1386
ag1387
ag1388
ag1389
ag1390
atp6699
Rp6700
sg4546
g2
((lp6701
g4545
ag5021
ag4546
atp6702
Rp6703
sg1468
g2
((lp6704
g1466
ag1467
ag1468
ag1464
atp6705
Rp6706
sg2081
g2
((lp6707
g6677
ag2079
aS'belle'
p6708
ag6675
ag2080
ag347
ag2081
ag5662
ag6679
atp6709
Rp6710
sg3147
g2
((lp6711
g3142
ag3140
ag3143
ag3144
ag3145
ag3146
ag3147
ag3148
atp6712
Rp6713
sg6294
g2
((lp6714
g6292
ag6294
ag6295
atp6715
Rp6716
sS'hassie'
p6717
g2
((lp6718
S'haseltine'
p6719
ag6717
atp6720
Rp6721
sg3484
g2
((lp6722
g3484
ag3481
ag3485
atp6723
Rp6724
sg750
g2
((lp6725
g750
ag748
ag751
atp6726
Rp6727
sg326
g2
((lp6728
g321
ag323
ag324
ag325
ag326
ag327
atp6729
Rp6730
sg3373
g2
((lp6731
g3372
ag3373
ag3370
atp6732
Rp6733
sg34
g2
((lp6734
g34
ag35
ag36
ag37
ag38
ag39
ag32
ag40
ag41
atp6735
Rp6736
sS'bree'
p6737
g2
((lp6738
g6737
aS'aubrey'
p6739
atp6740
Rp6741
sg681
g2
((lp6742
g680
ag678
ag681
atp6743
Rp6744
sg934
g2
((lp6745
g932
ag934
atp6746
Rp6747
sg4463
g2
((lp6748
g4461
ag4463
atp6749
Rp6750
sg2405
g2
((lp6751
g2404
ag2405
ag2402
atp6752
Rp6753
sg221
g2
((lp6754
g218
ag216
ag219
ag220
ag221
atp6755
Rp6756
sg1375
g2
((lp6757
g1375
ag1373
atp6758
Rp6759
sg4815
g2
((lp6760
g4813
ag4815
atp6761
Rp6762
sg519
g2
((lp6763
g516
ag517
ag518
ag514
ag519
atp6764
Rp6765
sg1270
g2
((lp6766
g1270
ag1262
ag1576
ag1271
ag1268
atp6767
Rp6768
sg5561
g2
((lp6769
g5559
ag5561
atp6770
Rp6771
sg1873
g2
((lp6772
g1869
ag1873
atp6773
Rp6774
sg3282
g2
((lp6775
g3279
ag3281
ag3282
ag3283
atp6776
Rp6777
sg4305
g2
((lp6778
S'casper'
p6779
aS'jasper'
p6780
ag4305
atp6781
Rp6782
sg2362
g2
((lp6783
g2362
ag2363
ag2360
atp6784
Rp6785
sg5593
g2
((lp6786
g5593
ag6088
ag5594
atp6787
Rp6788
sg1492
g2
((lp6789
g1491
ag1492
ag1488
ag1493
atp6790
Rp6791
sg846
g2
((lp6792
g846
ag850
ag844
atp6793
Rp6794
sg3183
g2
((lp6795
g3183
ag3181
atp6796
Rp6797
sg1860
g2
((lp6798
g1856
ag1857
ag1858
ag1859
ag1850
ag1860
ag1861
ag1862
ag1863
atp6799
Rp6800
sg2104
g2
((lp6801
g2103
ag5861
ag2104
ag2105
ag2106
ag5862
atp6802
Rp6803
sg4411
g2
((lp6804
g6611
ag4406
ag4407
ag4411
ag4409
ag4408
atp6805
Rp6806
sg1936
g2
((lp6807
g1935
ag1936
ag1933
atp6808
Rp6809
sg2789
g2
((lp6810
g1
ag14
ag2788
ag2789
ag2790
ag2786
ag2791
ag9
ag6
ag2792
ag11
atp6811
Rp6812
sg1935
g2
((lp6813
g1935
ag1936
ag1933
atp6814
Rp6815
sg1359
g2
((lp6816
g1359
ag1358
ag2392
ag1355
atp6817
Rp6818
sg5493
g2
((lp6819
g5493
ag5491
ag5494
ag5495
atp6820
Rp6821
sg2830
g2
((lp6822
g2832
ag3656
ag2830
ag2645
ag2831
ag2833
ag2642
ag2828
ag3657
ag2643
ag2644
ag3658
atp6823
Rp6824
sg5507
g2
((lp6825
g5504
ag5506
ag5507
atp6826
Rp6827
sg1437
g2
((lp6828
g1433
ag4670
ag1438
ag1434
ag1435
ag1431
ag1436
ag1437
atp6829
Rp6830
sg3914
g2
((lp6831
g3913
ag3914
ag4467
atp6832
Rp6833
sg2382
g2
((lp6834
g2380
ag2382
atp6835
Rp6836
sg1057
g2
((lp6837
g1057
ag1058
ag1059
ag1055
atp6838
Rp6839
sg825
g2
((lp6840
g824
ag825
ag826
ag822
ag2519
ag827
ag828
ag829
ag830
atp6841
Rp6842
sg2422
g2
((lp6843
g2420
ag2422
ag2423
atp6844
Rp6845
sg1985
g2
((lp6846
g2020
ag5054
ag2021
ag1983
ag1987
ag1988
ag1985
ag1989
atp6847
Rp6848
sg3717
g2
((lp6849
g3717
ag3718
aS'dick'
p6850
atp6851
Rp6852
sg2504
g2
((lp6853
g2502
ag2504
ag2505
atp6854
Rp6855
sg2080
g2
((lp6856
g6708
ag2079
ag2080
ag2081
atp6857
Rp6858
sg1288
g2
((lp6859
g1293
ag3541
ag1286
ag1288
ag1291
atp6860
Rp6861
sg3142
g2
((lp6862
g3142
ag3140
ag3143
ag3144
ag3145
ag3146
ag3147
ag3148
atp6863
Rp6864
sg1315
g2
((lp6865
g1312
ag1315
ag1317
ag1318
ag1314
atp6866
Rp6867
sg2610
g2
((lp6868
g330
ag4969
ag2609
ag4967
ag334
ag332
ag333
ag2607
ag2610
atp6869
Rp6870
sg2918
g2
((lp6871
g2917
ag2918
ag2915
ag2919
atp6872
Rp6873
sg3707
g2
((lp6874
g3705
ag3707
atp6875
Rp6876
sg3097
g2
((lp6877
g3097
ag3095
atp6878
Rp6879
sg1905
g2
((lp6880
g2467
ag2471
ag2472
ag1903
ag1905
ag2470
ag2474
ag2473
atp6881
Rp6882
sg2703
g2
((lp6883
g3452
ag5743
ag2702
ag2703
ag2700
ag2701
atp6884
Rp6885
sg1635
g2
((lp6886
g1631
ag1629
ag1635
ag2480
atp6887
Rp6888
sg4207
g2
((lp6889
g4207
ag4205
ag4208
atp6890
Rp6891
sg531
g2
((lp6892
g527
ag529
ag530
ag531
ag532
ag533
ag534
ag535
atp6893
Rp6894
sS'alphus'
p6895
g2
((lp6896
g6895
aS'alphinias'
p6897
atp6898
Rp6899
sg554
g2
((lp6900
g3744
ag189
ag549
ag193
ag1809
ag551
ag190
ag554
ag1327
ag546
ag194
ag3745
ag3746
ag197
atp6901
Rp6902
sg184
g2
((lp6903
g182
ag184
atp6904
Rp6905
sg4077
g2
((lp6906
g4075
ag4073
ag4076
ag4077
ag4078
ag4079
ag4080
ag4081
ag4082
ag4083
atp6907
Rp6908
sg3315
g2
((lp6909
g3315
ag3313
ag3316
atp6910
Rp6911
sg5196
g2
((lp6912
g5194
ag5198
ag5196
ag5197
atp6913
Rp6914
sg2831
g2
((lp6915
g2830
ag2831
ag2828
ag2832
ag2833
atp6916
Rp6917
sg6739
g2
((lp6918
g6737
ag6739
atp6919
Rp6920
sg4764
g2
((lp6921
g4762
ag4763
ag4760
ag4764
ag4765
atp6922
Rp6923
sg3728
g2
((lp6924
g3725
ag3727
ag3728
atp6925
Rp6926
sg6335
g2
((lp6927
g6335
aS'sid'
p6928
atp6929
Rp6930
sg4888
g2
((lp6931
g4887
ag4885
ag4888
ag4889
atp6932
Rp6933
sg4861
g2
((lp6934
g4860
ag4858
ag4861
ag4862
ag4863
atp6935
Rp6936
sg1330
g2
((lp6937
g1332
ag1330
ag2123
ag1334
ag2124
ag1325
atp6938
Rp6939
sg1507
g2
((lp6940
g1504
ag1505
ag1506
ag1507
ag1508
ag1502
atp6941
Rp6942
sg2790
g2
((lp6943
g538
ag2788
ag541
ag2789
ag2790
ag2786
ag2791
ag542
ag2792
atp6944
Rp6945
sg4237
g2
((lp6946
g5552
ag4237
ag4239
ag5553
ag4240
atp6947
Rp6948
sg1206
g2
((lp6949
g1201
ag654
ag1203
ag656
ag657
ag1204
ag1205
ag655
ag1206
ag1207
ag652
ag1209
atp6950
Rp6951
sg3266
g2
((lp6952
g3266
ag3270
ag5370
atp6953
Rp6954
sg582
g2
((lp6955
g580
ag578
ag581
ag582
ag583
ag584
atp6956
Rp6957
sg1969
g2
((lp6958
g1969
ag1967
ag1970
ag1971
atp6959
Rp6960
sg1327
g2
((lp6961
g1327
aS'helen'
p6962
aS'ellen'
p6963
aS'nellie'
p6964
atp6965
Rp6966
sS'mally'
p6967
g2
((lp6968
S'malachi'
p6969
ag6967
atp6970
Rp6971
sg4553
g2
((lp6972
S'jessie'
p6973
aS'jenny'
p6974
ag4553
atp6975
Rp6976
sg11
g2
((lp6977
g1
ag14
ag4
ag1920
ag1925
ag5
ag6
ag7
ag8
ag1926
ag9
ag1921
ag1922
ag1923
ag10
ag11
atp6978
Rp6979
sg6494
g2
((lp6980
g6494
ag6492
ag6495
atp6981
Rp6982
sg1822
g2
((lp6983
g1821
ag1819
ag1822
atp6984
Rp6985
sg962
g2
((lp6986
g959
ag960
ag961
ag962
ag963
ag957
atp6987
Rp6988
sg3448
g2
((lp6989
g2641
ag2645
ag3656
ag2642
ag3657
ag3446
ag2643
ag3658
ag3448
atp6990
Rp6991
sg1624
g2
((lp6992
g1624
ag3652
ag1625
atp6993
Rp6994
sg3943
g2
((lp6995
S'polly'
p6996
ag3941
ag3943
ag3942
atp6997
Rp6998
sg3596
g2
((lp6999
g3593
ag3594
ag3595
ag3591
ag3596
atp7000
Rp7001
sg4754
g2
((lp7002
g4754
ag4756
ag4752
ag4755
ag4757
atp7003
Rp7004
sg1452
g2
((lp7005
g1452
aS'ray'
p7006
atp7007
Rp7008
sg3363
g2
((lp7009
g3362
ag3363
ag3364
ag3360
atp7010
Rp7011
sg4128
g2
((lp7012
g4127
ag4128
ag4125
atp7013
Rp7014
sg4255
g2
((lp7015
g4255
aS'dicey'
p7016
atp7017
Rp7018
sg6548
g2
((lp7019
g6548
aS'val'
p7020
atp7021
Rp7022
sg713
g2
((lp7023
g713
ag711
ag714
atp7024
Rp7025
sg86
g2
((lp7026
g1852
ag84
ag85
ag86
ag87
ag82
ag1855
ag2534
ag88
ag89
ag90
ag1853
atp7027
Rp7028
sg1685
g2
((lp7029
g1685
ag1682
ag1688
atp7030
Rp7031
sg2319
g2
((lp7032
g2318
ag2319
ag2316
ag2320
atp7033
Rp7034
sg4406
g2
((lp7035
g4409
ag6611
ag4408
ag4411
ag4406
atp7036
Rp7037
sg4306
g2
((lp7038
g4305
ag4303
ag4306
atp7039
Rp7040
sg3941
g2
((lp7041
g6996
ag3941
ag3943
ag3942
atp7042
Rp7043
sg117
g2
((lp7044
g116
ag117
ag114
atp7045
Rp7046
sg1543
g2
((lp7047
g1541
ag1543
ag1539
ag1542
ag5923
atp7048
Rp7049
sg1655
g2
((lp7050
g1655
ag1653
ag1656
atp7051
Rp7052
sg1956
g2
((lp7053
g1956
ag1954
ag1957
atp7054
Rp7055
sg2079
g2
((lp7056
g6708
ag2079
ag2080
ag2081
atp7057
Rp7058
sg5924
g2
((lp7059
S'nick'
p7060
ag5924
atp7061
Rp7062
sg4015
g2
((lp7063
g1750
ag4012
ag4013
ag4149
ag1757
ag4014
ag4015
ag4016
ag4017
ag1754
ag4150
atp7064
Rp7065
sg3283
g2
((lp7066
g3279
ag3281
ag3282
ag3283
atp7067
Rp7068
sg6473
g2
((lp7069
g6471
ag6473
ag6474
atp7070
Rp7071
sg2803
g2
((lp7072
g2801
ag2799
ag2802
ag2803
atp7073
Rp7074
sg1649
g2
((lp7075
g1648
ag1649
ag1646
ag1650
atp7076
Rp7077
sg3543
g2
((lp7078
g3818
ag3819
ag3544
ag3820
ag3545
ag3543
ag3542
atp7079
Rp7080
sg5495
g2
((lp7081
g5493
ag5491
ag5494
ag5495
atp7082
Rp7083
sg581
g2
((lp7084
g580
ag578
ag581
ag582
ag583
ag584
atp7085
Rp7086
sg2645
g2
((lp7087
g2641
ag2645
ag3656
ag2642
ag3657
ag2643
ag2644
ag3658
atp7088
Rp7089
sg3003
g2
((lp7090
g3880
ag3003
ag3001
ag3002
atp7091
Rp7092
sg1650
g2
((lp7093
g1648
ag1649
ag1646
ag1650
atp7094
Rp7095
sg5589
g2
((lp7096
g5589
aS'von'
p7097
atp7098
Rp7099
sg4660
g2
((lp7100
g4657
ag4659
ag4660
atp7101
Rp7102
sg5856
g2
((lp7103
g5856
ag5854
atp7104
Rp7105
sg1963
g2
((lp7106
g1960
ag1962
ag1963
ag1964
atp7107
Rp7108
sg1130
g2
((lp7109
g1126
ag1130
ag4138
ag4139
atp7110
Rp7111
sg4001
g2
((lp7112
g3999
ag4001
ag4002
atp7113
Rp7114
sg998
g2
((lp7115
g998
ag999
ag996
ag1000
atp7116
Rp7117
sg388
g2
((lp7118
g3415
ag3416
ag383
ag388
ag389
atp7119
Rp7120
sg2105
g2
((lp7121
g2103
ag5861
ag2104
ag2105
ag2106
ag5862
atp7122
Rp7123
sg772
g2
((lp7124
g798
ag765
ag766
ag767
ag760
ag761
ag759
ag768
ag762
ag764
ag772
ag771
ag770
atp7125
Rp7126
sg3942
g2
((lp7127
g6996
ag3942
ag3941
ag3943
atp7128
Rp7129
sg2399
g2
((lp7130
g2397
ag2395
ag2398
ag2399
atp7131
Rp7132
sg1754
g2
((lp7133
g1750
ag1752
ag1753
ag1754
ag1755
ag1756
ag1757
atp7134
Rp7135
sg72
g2
((lp7136
g72
ag73
ag74
ag70
atp7137
Rp7138
sg761
g2
((lp7139
g798
ag765
ag766
ag767
ag760
ag761
ag759
ag768
ag762
ag764
ag772
ag771
ag770
atp7140
Rp7141
sg2085
g2
((lp7142
g2085
ag2086
ag5064
atp7143
Rp7144
sg3565
g2
((lp7145
g3563
ag3564
ag3561
ag3565
atp7146
Rp7147
sg727
g2
((lp7148
g2543
ag726
ag727
atp7149
Rp7150
sg3718
g2
((lp7151
g3717
ag3718
ag6850
atp7152
Rp7153
sg3130
g2
((lp7154
g3128
ag3130
ag3131
atp7155
Rp7156
sg602
g2
((lp7157
g601
ag602
ag599
ag603
ag604
ag605
atp7158
Rp7159
sg2320
g2
((lp7160
g2318
ag2319
ag2316
ag2320
ag6423
atp7161
Rp7162
sg4083
g2
((lp7163
g4075
ag4073
ag4076
ag4077
ag4078
ag4079
ag4080
ag4081
ag4082
ag4083
atp7164
Rp7165
sg1920
g2
((lp7166
g1925
ag1926
ag1920
ag4476
ag1921
ag1922
ag1923
ag4477
atp7167
Rp7168
sg6689
g2
((lp7169
g6689
aS'milly'
p7170
atp7171
Rp7172
sg2436
g2
((lp7173
g2433
ag2655
ag2435
ag2431
ag2437
ag2659
ag2436
ag2434
ag2658
ag2660
atp7174
Rp7175
sg483
g2
((lp7176
g4383
ag483
ag481
atp7177
Rp7178
sg2577
g2
((lp7179
g2575
ag3432
ag3434
ag3430
ag2577
atp7180
Rp7181
sg2665
g2
((lp7182
g2663
ag2665
ag2666
atp7183
Rp7184
sg4486
g2
((lp7185
g4483
ag4485
ag4486
atp7186
Rp7187
sg262
g2
((lp7188
g261
ag262
ag263
ag264
ag259
atp7189
Rp7190
sg971
g2
((lp7191
g969
ag971
ag972
ag973
atp7192
Rp7193
sg87
g2
((lp7194
S'lynn'
p7195
aS'lena'
p7196
aS'carrie'
p7197
ag87
aS'caddie'
p7198
aS'carol'
p7199
aS'cassie'
p7200
atp7201
Rp7202
sS'terry'
p7203
g2
((lp7204
g1603
ag2641
ag2645
ag1604
ag1601
ag2642
aS'terence'
p7205
ag7203
ag2643
ag2644
ag1606
atp7206
Rp7207
sg2075
g2
((lp7208
g2073
ag2071
ag2074
ag2075
atp7209
Rp7210
sg1233
g2
((lp7211
g1231
ag1232
ag1229
ag1233
atp7212
Rp7213
sg7205
g2
((lp7214
g7205
ag7203
atp7215
Rp7216
sg2539
g2
((lp7217
g4893
ag2538
ag2545
ag2539
atp7218
Rp7219
sg3814
g2
((lp7220
g3812
ag3814
atp7221
Rp7222
sg6679
g2
((lp7223
g6678
ag6679
ag6675
ag6677
atp7224
Rp7225
sg760
g2
((lp7226
g798
ag765
ag766
ag514
ag519
ag767
ag518
ag760
ag761
ag759
ag768
ag762
ag764
ag516
ag772
ag771
ag770
atp7227
Rp7228
sg1684
g2
((lp7229
g1686
ag2273
ag1684
ag1689
atp7230
Rp7231
sg1892
g2
((lp7232
g1889
ag1891
ag1892
atp7233
Rp7234
sg443
g2
((lp7235
g446
ag443
ag447
ag439
ag445
atp7236
Rp7237
sg3273
g2
((lp7238
g3273
aS'nettie'
p7239
atp7240
Rp7241
sg1333
g2
((lp7242
g1335
ag1333
aS'helen'
p7243
atp7244
Rp7245
sg3275
g2
((lp7246
g3275
ag3276
ag3264
atp7247
Rp7248
sg2031
g2
((lp7249
g2029
ag2031
ag2033
atp7250
Rp7251
sg1187
g2
((lp7252
g1185
ag1187
atp7253
Rp7254
sg6719
g2
((lp7255
g6719
ag6717
atp7256
Rp7257
sg311
g2
((lp7258
g305
ag303
ag306
ag2280
ag307
ag308
ag309
ag310
ag2281
ag311
ag312
ag313
ag314
ag315
ag316
ag317
ag318
atp7259
Rp7260
sg4409
g2
((lp7261
g4409
ag6611
ag4408
ag4411
ag4406
atp7262
Rp7263
sg4240
g2
((lp7264
g5552
ag4237
ag4239
ag5553
ag4240
atp7265
Rp7266
sg312
g2
((lp7267
g305
ag303
ag306
ag307
ag308
ag309
ag310
ag311
ag312
ag313
ag314
ag315
ag316
ag317
ag318
atp7268
Rp7269
sg84
g2
((lp7270
g84
ag85
ag86
ag87
ag6675
ag82
ag6678
ag88
ag89
ag90
ag6679
atp7271
Rp7272
sg649
g2
((lp7273
g647
ag649
atp7274
Rp7275
sg1551
g2
((lp7276
g1548
ag1549
ag1546
ag1550
ag1551
ag1552
ag1553
ag1554
ag1555
atp7277
Rp7278
sg5044
g2
((lp7279
g5043
ag5041
ag5044
atp7280
Rp7281
sg4261
g2
((lp7282
g4261
ag4259
atp7283
Rp7284
sg3696
g2
((lp7285
g3695
ag3696
ag3693
atp7286
Rp7287
sg5696
g2
((lp7288
g5694
ag5696
atp7289
Rp7290
sg960
g2
((lp7291
g960
ag824
ag1142
ag1143
ag2360
ag1423
ag827
ag2266
ag1146
ag829
ag825
ag962
ag4553
ag2265
ag2362
ag2262
ag822
ag959
ag828
ag961
ag1149
ag963
ag1148
ag957
atp7292
Rp7293
sg462
g2
((lp7294
g462
ag463
ag460
ag464
atp7295
Rp7296
sg4296
g2
((lp7297
g4294
ag4296
ag4297
atp7298
Rp7299
sg1443
g2
((lp7300
g1443
ag1441
atp7301
Rp7302
sg323
g2
((lp7303
g321
ag323
ag324
ag325
ag326
ag327
atp7304
Rp7305
sg1643
g2
((lp7306
g1641
ag1639
ag1643
ag1642
atp7307
Rp7308
sg2062
g2
((lp7309
g2055
ag2062
ag2061
ag2059
ag2057
atp7310
Rp7311
sg2074
g2
((lp7312
g2073
ag2071
ag2074
ag2075
atp7313
Rp7314
sg4794
g2
((lp7315
g4794
ag4792
atp7316
Rp7317
sg3144
g2
((lp7318
g3142
ag1750
ag4012
ag4013
ag4149
ag3140
ag4014
ag3143
ag4015
ag3144
ag4017
ag3145
ag3146
ag1757
ag1754
ag3147
ag3148
atp7319
Rp7320
sg1581
g2
((lp7321
g1581
ag5918
ag5917
ag1584
ag1592
ag5919
atp7322
Rp7323
sg1505
g2
((lp7324
g1504
ag1505
ag1506
ag1507
ag1508
ag1502
atp7325
Rp7326
sg6969
g2
((lp7327
g6969
ag6967
atp7328
Rp7329
sg2061
g2
((lp7330
g2055
ag2062
ag2061
ag2059
ag2057
atp7331
Rp7332
sg6564
g2
((lp7333
g6564
ag6562
atp7334
Rp7335
sg6474
g2
((lp7336
g6471
ag6473
ag6474
atp7337
Rp7338
sg1433
g2
((lp7339
g1433
ag4670
ag1438
ag1434
ag1435
ag1431
ag1436
ag1437
atp7340
Rp7341
sg4127
g2
((lp7342
g4127
ag4128
ag4125
atp7343
Rp7344
sg2846
g2
((lp7345
g2846
ag2844
atp7346
Rp7347
sg3072
g2
((lp7348
g3073
ag3072
ag3074
ag3075
ag3070
atp7349
Rp7350
sg6897
g2
((lp7351
g6895
ag6897
atp7352
Rp7353
sg5101
g2
((lp7354
g305
ag303
ag306
ag307
ag308
ag309
ag5101
ag311
ag1338
ag312
ag313
ag314
ag315
ag5099
atp7355
Rp7356
sg5842
g2
((lp7357
g5842
ag5840
atp7358
Rp7359
sg2572
g2
((lp7360
g2569
ag2570
ag2571
ag2572
ag2567
atp7361
Rp7362
sg2242
g2
((lp7363
g3888
ag2242
ag2239
atp7364
Rp7365
sg3544
g2
((lp7366
g3818
ag3819
ag3544
ag3820
ag3545
ag3543
ag3542
atp7367
Rp7368
sg4779
g2
((lp7369
g4777
ag4779
ag6428
ag4780
atp7370
Rp7371
sg1875
g2
((lp7372
g1871
ag1872
ag1875
ag1886
ag1876
ag1874
atp7373
Rp7374
sg1335
g2
((lp7375
g3744
ag189
ag1330
ag190
ag1325
ag191
ag192
ag1332
ag1335
ag1334
ag7243
ag1333
ag197
atp7376
Rp7377
sg2300
g2
((lp7378
g269
ag270
ag273
ag267
ag2303
ag282
ag271
ag272
ag2301
ag274
ag275
ag276
ag2304
ag278
ag279
ag280
ag2298
ag281
ag2300
ag2302
ag283
ag284
ag285
atp7379
Rp7380
sg1987
g2
((lp7381
g2020
ag2021
ag1983
ag1987
ag1988
ag1985
ag1989
atp7382
Rp7383
sg1405
g2
((lp7384
g3186
ag2597
ag2598
ag1408
ag1409
ag1410
ag1411
ag1412
ag1405
ag1414
atp7385
Rp7386
s.